

Microchip MPLAB XC8 Assembler V2.46 build 20240104201356 
                                                                                               Wed Apr 01 08:13:30 2026

Microchip MPLAB XC8 C Compiler v2.46 (Free license) build 20240104201356 Og1 
     1                           	processor	16F1936
     2                           	pagewidth 120
     3                           	opt	flic
     4                           	psect	idataBANK0,global,class=CODE,delta=2,noexec
     5                           	psect	stringtext1,global,class=STRCODE,delta=2,noexec
     6                           	psect	stringtext2,global,class=STRCODE,delta=2,noexec
     7                           	psect	stringtext3,global,class=STRCODE,delta=2,noexec
     8                           	psect	stringtext4,global,class=STRCODE,delta=2,noexec
     9                           	psect	stringtext5,global,class=STRCODE,delta=2,noexec
    10                           	psect	stringtext6,global,class=STRCODE,delta=2,noexec
    11                           	psect	stringtext7,global,class=STRCODE,delta=2,noexec
    12                           	psect	stringtext8,global,class=STRCODE,delta=2,noexec
    13                           	psect	stringtext9,global,class=STRCODE,delta=2,noexec
    14                           	psect	cinit,global,class=CODE,merge=1,delta=2
    15                           	psect	bssCOMMON,global,class=COMMON,space=1,delta=1,noexec
    16                           	psect	bssBANK0,global,class=BANK0,space=1,delta=1,noexec
    17                           	psect	dataBANK0,global,class=BANK0,space=1,delta=1,noexec
    18                           	psect	clrtext,global,class=CODE,delta=2
    19                           	psect	cstackCOMMON,global,class=COMMON,space=1,delta=1,noexec
    20                           	psect	cstackBANK0,global,class=BANK0,space=1,delta=1,noexec
    21                           	psect	maintext,global,class=CODE,merge=1,split=1,delta=2
    22                           	psect	text1,local,class=CODE,merge=1,delta=2
    23                           	psect	text2,local,class=CODE,merge=1,delta=2
    24                           	psect	text3,local,class=CODE,merge=1,delta=2
    25                           	psect	text4,local,class=CODE,merge=1,delta=2
    26                           	psect	text5,local,class=CODE,merge=1,delta=2
    27                           	psect	text6,local,class=CODE,merge=1,delta=2
    28                           	psect	text7,local,class=CODE,merge=1,delta=2
    29                           	psect	text8,local,class=CODE,merge=1,delta=2
    30                           	psect	text9,local,class=CODE,merge=1,delta=2
    31                           	psect	text10,local,class=CODE,merge=1,delta=2
    32                           	psect	text11,local,class=CODE,merge=1,delta=2
    33                           	psect	text12,local,class=CODE,merge=1,delta=2
    34                           	psect	text13,local,class=CODE,merge=1,delta=2
    35                           	psect	text14,local,class=CODE,merge=1,delta=2
    36                           	psect	text15,local,class=CODE,merge=1,delta=2
    37                           	psect	text16,local,class=CODE,merge=1,delta=2
    38                           	psect	text17,local,class=CODE,merge=1,delta=2
    39                           	psect	text18,local,class=CODE,merge=1,delta=2
    40                           	psect	text19,local,class=CODE,merge=1,delta=2
    41                           	psect	text20,local,class=CODE,merge=1,delta=2
    42                           	psect	text21,local,class=CODE,merge=1,delta=2
    43                           	psect	text22,local,class=CODE,merge=1,delta=2
    44                           	psect	text23,local,class=CODE,merge=1,delta=2
    45                           	psect	text24,local,class=CODE,merge=1,delta=2
    46                           	psect	text25,local,class=CODE,merge=1,delta=2
    47                           	psect	text26,local,class=CODE,merge=1,delta=2
    48                           	psect	text27,local,class=CODE,merge=1,delta=2
    49                           	psect	text28,local,class=CODE,merge=1,delta=2
    50                           	psect	text29,local,class=CODE,merge=1,delta=2
    51                           	psect	text30,local,class=CODE,merge=1,delta=2
    52                           	psect	text31,local,class=CODE,merge=1,delta=2
    53                           	psect	text32,local,class=CODE,merge=1,delta=2
    54                           	psect	text33,local,class=CODE,merge=1,delta=2
    55                           	psect	text34,local,class=CODE,merge=1,delta=2
    56                           	psect	text35,local,class=CODE,merge=1,delta=2
    57                           	psect	text36,local,class=CODE,merge=1,delta=2
    58                           	psect	text37,local,class=CODE,merge=1,delta=2
    59                           	psect	text38,local,class=CODE,merge=1,delta=2
    60                           	psect	text39,local,class=CODE,merge=1,delta=2
    61                           	psect	text40,local,class=CODE,merge=1,delta=2
    62                           	psect	text41,local,class=CODE,merge=1,delta=2
    63                           	psect	intentry,global,class=CODE,delta=2
    64                           	psect	text43,local,class=CODE,merge=1,delta=2
    65                           	psect	text44,local,class=CODE,merge=1,delta=2
    66                           	psect	text45,local,class=CODE,merge=1,delta=2
    67                           	psect	text46,local,class=CODE,merge=1,delta=2
    68                           	psect	text47,local,class=CODE,merge=1,delta=2
    69                           	psect	config,global,abs,ovrld,class=CONFIG,space=4,delta=2,noexec
    70                           	dabs	1,0x7E,2
    71     0000                     
    72                           ; Version 2.20
    73                           ; Generated 12/02/2020 GMT
    74                           ; 
    75                           ; Copyright © 2020, Microchip Technology Inc. and its subsidiaries ("Microchip")
    76                           ; All rights reserved.
    77                           ; 
    78                           ; This software is developed by Microchip Technology Inc. and its subsidiaries ("Microch
      +                          ip").
    79                           ; 
    80                           ; Redistribution and use in source and binary forms, with or without modification, are
    81                           ; permitted provided that the following conditions are met:
    82                           ; 
    83                           ;     1. Redistributions of source code must retain the above copyright notice, this lis
      +                          t of
    84                           ;        conditions and the following disclaimer.
    85                           ; 
    86                           ;     2. Redistributions in binary form must reproduce the above copyright notice, this 
      +                          list
    87                           ;        of conditions and the following disclaimer in the documentation and/or other
    88                           ;        materials provided with the distribution.
    89                           ; 
    90                           ;     3. Microchip's name may not be used to endorse or promote products derived from th
      +                          is
    91                           ;        software without specific prior written permission.
    92                           ; 
    93                           ; THIS SOFTWARE IS PROVIDED BY MICROCHIP "AS IS" AND ANY EXPRESS OR IMPLIED WARRANTIES,
    94                           ; INCLUDING, BUT NOT LIMITED TO, THE IMPLIED WARRANTIES OF MERCHANTABILITY AND FITNESS F
      +                          OR
    95                           ; PURPOSE ARE DISCLAIMED.  IN NO EVENT SHALL MICROCHIP BE LIABLE FOR ANY DIRECT, INDIREC
      +                          T,
    96                           ; INCIDENTAL, SPECIAL, EXEMPLARY, OR CONSEQUENTIAL DAMAGES (INCLUDING BUT NOT LIMITED TO
    97                           ; PROCUREMENT OF SUBSTITUTE GOODS OR SERVICES; LOSS OF USE, DATA OR PROFITS; OR BUSINESS
    98                           ; INTERRUPTION) HOWSOEVER CAUSED AND ON ANY THEORY OF LIABILITY, WHETHER IN CONTRACT, ST
      +                          RICT
    99                           ; LIABILITY, OR TORT (INCLUDING NEGLIGENCE OR OTHERWISE) ARISING IN ANY WAY OUT OF THE U
      +                          SE OF
   100                           ; THIS SOFTWARE, EVEN IF ADVISED OF THE POSSIBILITY OF SUCH DAMAGE.
   101                           ; 
   102                           ; 
   103                           ; Code-generator required, PIC16F1936 Definitions
   104                           ; 
   105                           ; SFR Addresses
   106     0000                     	;# 
   107     0001                     	;# 
   108     0002                     	;# 
   109     0003                     	;# 
   110     0004                     	;# 
   111     0005                     	;# 
   112     0006                     	;# 
   113     0007                     	;# 
   114     0008                     	;# 
   115     0009                     	;# 
   116     000A                     	;# 
   117     000B                     	;# 
   118     000C                     	;# 
   119     000D                     	;# 
   120     000E                     	;# 
   121     0010                     	;# 
   122     0011                     	;# 
   123     0012                     	;# 
   124     0013                     	;# 
   125     0015                     	;# 
   126     0016                     	;# 
   127     0016                     	;# 
   128     0017                     	;# 
   129     0018                     	;# 
   130     0019                     	;# 
   131     001A                     	;# 
   132     001B                     	;# 
   133     001C                     	;# 
   134     001E                     	;# 
   135     001F                     	;# 
   136     008C                     	;# 
   137     008D                     	;# 
   138     008E                     	;# 
   139     0090                     	;# 
   140     0091                     	;# 
   141     0092                     	;# 
   142     0093                     	;# 
   143     0095                     	;# 
   144     0096                     	;# 
   145     0097                     	;# 
   146     0098                     	;# 
   147     0099                     	;# 
   148     009A                     	;# 
   149     009B                     	;# 
   150     009B                     	;# 
   151     009C                     	;# 
   152     009D                     	;# 
   153     009E                     	;# 
   154     010C                     	;# 
   155     010D                     	;# 
   156     010E                     	;# 
   157     0110                     	;# 
   158     0111                     	;# 
   159     0112                     	;# 
   160     0113                     	;# 
   161     0114                     	;# 
   162     0115                     	;# 
   163     0116                     	;# 
   164     0117                     	;# 
   165     0118                     	;# 
   166     0119                     	;# 
   167     011A                     	;# 
   168     011B                     	;# 
   169     011D                     	;# 
   170     018C                     	;# 
   171     018D                     	;# 
   172     0191                     	;# 
   173     0191                     	;# 
   174     0192                     	;# 
   175     0193                     	;# 
   176     0193                     	;# 
   177     0193                     	;# 
   178     0194                     	;# 
   179     0195                     	;# 
   180     0196                     	;# 
   181     0199                     	;# 
   182     019A                     	;# 
   183     019B                     	;# 
   184     019B                     	;# 
   185     019B                     	;# 
   186     019B                     	;# 
   187     019C                     	;# 
   188     019C                     	;# 
   189     019D                     	;# 
   190     019E                     	;# 
   191     019F                     	;# 
   192     020D                     	;# 
   193     0210                     	;# 
   194     0211                     	;# 
   195     0212                     	;# 
   196     0213                     	;# 
   197     0214                     	;# 
   198     0215                     	;# 
   199     0215                     	;# 
   200     0216                     	;# 
   201     0217                     	;# 
   202     0291                     	;# 
   203     0291                     	;# 
   204     0292                     	;# 
   205     0293                     	;# 
   206     0294                     	;# 
   207     0295                     	;# 
   208     0295                     	;# 
   209     0296                     	;# 
   210     0298                     	;# 
   211     0298                     	;# 
   212     0299                     	;# 
   213     029A                     	;# 
   214     029B                     	;# 
   215     029C                     	;# 
   216     029C                     	;# 
   217     029D                     	;# 
   218     029E                     	;# 
   219     029F                     	;# 
   220     0311                     	;# 
   221     0311                     	;# 
   222     0312                     	;# 
   223     0313                     	;# 
   224     0314                     	;# 
   225     0315                     	;# 
   226     0315                     	;# 
   227     0316                     	;# 
   228     0318                     	;# 
   229     0318                     	;# 
   230     0319                     	;# 
   231     031A                     	;# 
   232     031C                     	;# 
   233     031C                     	;# 
   234     031D                     	;# 
   235     031E                     	;# 
   236     0394                     	;# 
   237     0395                     	;# 
   238     0396                     	;# 
   239     0415                     	;# 
   240     0416                     	;# 
   241     0417                     	;# 
   242     041C                     	;# 
   243     041D                     	;# 
   244     041E                     	;# 
   245     0791                     	;# 
   246     0792                     	;# 
   247     0793                     	;# 
   248     0794                     	;# 
   249     0795                     	;# 
   250     0798                     	;# 
   251     0799                     	;# 
   252     07A0                     	;# 
   253     07A1                     	;# 
   254     07A3                     	;# 
   255     07A4                     	;# 
   256     07A6                     	;# 
   257     07A7                     	;# 
   258     07A9                     	;# 
   259     07AA                     	;# 
   260     0FE4                     	;# 
   261     0FE5                     	;# 
   262     0FE6                     	;# 
   263     0FE7                     	;# 
   264     0FE8                     	;# 
   265     0FE9                     	;# 
   266     0FEA                     	;# 
   267     0FEB                     	;# 
   268     0FED                     	;# 
   269     0FEE                     	;# 
   270     0FEF                     	;# 
   271     0000                     	;# 
   272     0001                     	;# 
   273     0002                     	;# 
   274     0003                     	;# 
   275     0004                     	;# 
   276     0005                     	;# 
   277     0006                     	;# 
   278     0007                     	;# 
   279     0008                     	;# 
   280     0009                     	;# 
   281     000A                     	;# 
   282     000B                     	;# 
   283     000C                     	;# 
   284     000D                     	;# 
   285     000E                     	;# 
   286     0010                     	;# 
   287     0011                     	;# 
   288     0012                     	;# 
   289     0013                     	;# 
   290     0015                     	;# 
   291     0016                     	;# 
   292     0016                     	;# 
   293     0017                     	;# 
   294     0018                     	;# 
   295     0019                     	;# 
   296     001A                     	;# 
   297     001B                     	;# 
   298     001C                     	;# 
   299     001E                     	;# 
   300     001F                     	;# 
   301     008C                     	;# 
   302     008D                     	;# 
   303     008E                     	;# 
   304     0090                     	;# 
   305     0091                     	;# 
   306     0092                     	;# 
   307     0093                     	;# 
   308     0095                     	;# 
   309     0096                     	;# 
   310     0097                     	;# 
   311     0098                     	;# 
   312     0099                     	;# 
   313     009A                     	;# 
   314     009B                     	;# 
   315     009B                     	;# 
   316     009C                     	;# 
   317     009D                     	;# 
   318     009E                     	;# 
   319     010C                     	;# 
   320     010D                     	;# 
   321     010E                     	;# 
   322     0110                     	;# 
   323     0111                     	;# 
   324     0112                     	;# 
   325     0113                     	;# 
   326     0114                     	;# 
   327     0115                     	;# 
   328     0116                     	;# 
   329     0117                     	;# 
   330     0118                     	;# 
   331     0119                     	;# 
   332     011A                     	;# 
   333     011B                     	;# 
   334     011D                     	;# 
   335     018C                     	;# 
   336     018D                     	;# 
   337     0191                     	;# 
   338     0191                     	;# 
   339     0192                     	;# 
   340     0193                     	;# 
   341     0193                     	;# 
   342     0193                     	;# 
   343     0194                     	;# 
   344     0195                     	;# 
   345     0196                     	;# 
   346     0199                     	;# 
   347     019A                     	;# 
   348     019B                     	;# 
   349     019B                     	;# 
   350     019B                     	;# 
   351     019B                     	;# 
   352     019C                     	;# 
   353     019C                     	;# 
   354     019D                     	;# 
   355     019E                     	;# 
   356     019F                     	;# 
   357     020D                     	;# 
   358     0210                     	;# 
   359     0211                     	;# 
   360     0212                     	;# 
   361     0213                     	;# 
   362     0214                     	;# 
   363     0215                     	;# 
   364     0215                     	;# 
   365     0216                     	;# 
   366     0217                     	;# 
   367     0291                     	;# 
   368     0291                     	;# 
   369     0292                     	;# 
   370     0293                     	;# 
   371     0294                     	;# 
   372     0295                     	;# 
   373     0295                     	;# 
   374     0296                     	;# 
   375     0298                     	;# 
   376     0298                     	;# 
   377     0299                     	;# 
   378     029A                     	;# 
   379     029B                     	;# 
   380     029C                     	;# 
   381     029C                     	;# 
   382     029D                     	;# 
   383     029E                     	;# 
   384     029F                     	;# 
   385     0311                     	;# 
   386     0311                     	;# 
   387     0312                     	;# 
   388     0313                     	;# 
   389     0314                     	;# 
   390     0315                     	;# 
   391     0315                     	;# 
   392     0316                     	;# 
   393     0318                     	;# 
   394     0318                     	;# 
   395     0319                     	;# 
   396     031A                     	;# 
   397     031C                     	;# 
   398     031C                     	;# 
   399     031D                     	;# 
   400     031E                     	;# 
   401     0394                     	;# 
   402     0395                     	;# 
   403     0396                     	;# 
   404     0415                     	;# 
   405     0416                     	;# 
   406     0417                     	;# 
   407     041C                     	;# 
   408     041D                     	;# 
   409     041E                     	;# 
   410     0791                     	;# 
   411     0792                     	;# 
   412     0793                     	;# 
   413     0794                     	;# 
   414     0795                     	;# 
   415     0798                     	;# 
   416     0799                     	;# 
   417     07A0                     	;# 
   418     07A1                     	;# 
   419     07A3                     	;# 
   420     07A4                     	;# 
   421     07A6                     	;# 
   422     07A7                     	;# 
   423     07A9                     	;# 
   424     07AA                     	;# 
   425     0FE4                     	;# 
   426     0FE5                     	;# 
   427     0FE6                     	;# 
   428     0FE7                     	;# 
   429     0FE8                     	;# 
   430     0FE9                     	;# 
   431     0FEA                     	;# 
   432     0FEB                     	;# 
   433     0FED                     	;# 
   434     0FEE                     	;# 
   435     0FEF                     	;# 
   436     0000                     	;# 
   437     0001                     	;# 
   438     0002                     	;# 
   439     0003                     	;# 
   440     0004                     	;# 
   441     0005                     	;# 
   442     0006                     	;# 
   443     0007                     	;# 
   444     0008                     	;# 
   445     0009                     	;# 
   446     000A                     	;# 
   447     000B                     	;# 
   448     000C                     	;# 
   449     000D                     	;# 
   450     000E                     	;# 
   451     0010                     	;# 
   452     0011                     	;# 
   453     0012                     	;# 
   454     0013                     	;# 
   455     0015                     	;# 
   456     0016                     	;# 
   457     0016                     	;# 
   458     0017                     	;# 
   459     0018                     	;# 
   460     0019                     	;# 
   461     001A                     	;# 
   462     001B                     	;# 
   463     001C                     	;# 
   464     001E                     	;# 
   465     001F                     	;# 
   466     008C                     	;# 
   467     008D                     	;# 
   468     008E                     	;# 
   469     0090                     	;# 
   470     0091                     	;# 
   471     0092                     	;# 
   472     0093                     	;# 
   473     0095                     	;# 
   474     0096                     	;# 
   475     0097                     	;# 
   476     0098                     	;# 
   477     0099                     	;# 
   478     009A                     	;# 
   479     009B                     	;# 
   480     009B                     	;# 
   481     009C                     	;# 
   482     009D                     	;# 
   483     009E                     	;# 
   484     010C                     	;# 
   485     010D                     	;# 
   486     010E                     	;# 
   487     0110                     	;# 
   488     0111                     	;# 
   489     0112                     	;# 
   490     0113                     	;# 
   491     0114                     	;# 
   492     0115                     	;# 
   493     0116                     	;# 
   494     0117                     	;# 
   495     0118                     	;# 
   496     0119                     	;# 
   497     011A                     	;# 
   498     011B                     	;# 
   499     011D                     	;# 
   500     018C                     	;# 
   501     018D                     	;# 
   502     0191                     	;# 
   503     0191                     	;# 
   504     0192                     	;# 
   505     0193                     	;# 
   506     0193                     	;# 
   507     0193                     	;# 
   508     0194                     	;# 
   509     0195                     	;# 
   510     0196                     	;# 
   511     0199                     	;# 
   512     019A                     	;# 
   513     019B                     	;# 
   514     019B                     	;# 
   515     019B                     	;# 
   516     019B                     	;# 
   517     019C                     	;# 
   518     019C                     	;# 
   519     019D                     	;# 
   520     019E                     	;# 
   521     019F                     	;# 
   522     020D                     	;# 
   523     0210                     	;# 
   524     0211                     	;# 
   525     0212                     	;# 
   526     0213                     	;# 
   527     0214                     	;# 
   528     0215                     	;# 
   529     0215                     	;# 
   530     0216                     	;# 
   531     0217                     	;# 
   532     0291                     	;# 
   533     0291                     	;# 
   534     0292                     	;# 
   535     0293                     	;# 
   536     0294                     	;# 
   537     0295                     	;# 
   538     0295                     	;# 
   539     0296                     	;# 
   540     0298                     	;# 
   541     0298                     	;# 
   542     0299                     	;# 
   543     029A                     	;# 
   544     029B                     	;# 
   545     029C                     	;# 
   546     029C                     	;# 
   547     029D                     	;# 
   548     029E                     	;# 
   549     029F                     	;# 
   550     0311                     	;# 
   551     0311                     	;# 
   552     0312                     	;# 
   553     0313                     	;# 
   554     0314                     	;# 
   555     0315                     	;# 
   556     0315                     	;# 
   557     0316                     	;# 
   558     0318                     	;# 
   559     0318                     	;# 
   560     0319                     	;# 
   561     031A                     	;# 
   562     031C                     	;# 
   563     031C                     	;# 
   564     031D                     	;# 
   565     031E                     	;# 
   566     0394                     	;# 
   567     0395                     	;# 
   568     0396                     	;# 
   569     0415                     	;# 
   570     0416                     	;# 
   571     0417                     	;# 
   572     041C                     	;# 
   573     041D                     	;# 
   574     041E                     	;# 
   575     0791                     	;# 
   576     0792                     	;# 
   577     0793                     	;# 
   578     0794                     	;# 
   579     0795                     	;# 
   580     0798                     	;# 
   581     0799                     	;# 
   582     07A0                     	;# 
   583     07A1                     	;# 
   584     07A3                     	;# 
   585     07A4                     	;# 
   586     07A6                     	;# 
   587     07A7                     	;# 
   588     07A9                     	;# 
   589     07AA                     	;# 
   590     0FE4                     	;# 
   591     0FE5                     	;# 
   592     0FE6                     	;# 
   593     0FE7                     	;# 
   594     0FE8                     	;# 
   595     0FE9                     	;# 
   596     0FEA                     	;# 
   597     0FEB                     	;# 
   598     0FED                     	;# 
   599     0FEE                     	;# 
   600     0FEF                     	;# 
   601     0000                     	;# 
   602     0001                     	;# 
   603     0002                     	;# 
   604     0003                     	;# 
   605     0004                     	;# 
   606     0005                     	;# 
   607     0006                     	;# 
   608     0007                     	;# 
   609     0008                     	;# 
   610     0009                     	;# 
   611     000A                     	;# 
   612     000B                     	;# 
   613     000C                     	;# 
   614     000D                     	;# 
   615     000E                     	;# 
   616     0010                     	;# 
   617     0011                     	;# 
   618     0012                     	;# 
   619     0013                     	;# 
   620     0015                     	;# 
   621     0016                     	;# 
   622     0016                     	;# 
   623     0017                     	;# 
   624     0018                     	;# 
   625     0019                     	;# 
   626     001A                     	;# 
   627     001B                     	;# 
   628     001C                     	;# 
   629     001E                     	;# 
   630     001F                     	;# 
   631     008C                     	;# 
   632     008D                     	;# 
   633     008E                     	;# 
   634     0090                     	;# 
   635     0091                     	;# 
   636     0092                     	;# 
   637     0093                     	;# 
   638     0095                     	;# 
   639     0096                     	;# 
   640     0097                     	;# 
   641     0098                     	;# 
   642     0099                     	;# 
   643     009A                     	;# 
   644     009B                     	;# 
   645     009B                     	;# 
   646     009C                     	;# 
   647     009D                     	;# 
   648     009E                     	;# 
   649     010C                     	;# 
   650     010D                     	;# 
   651     010E                     	;# 
   652     0110                     	;# 
   653     0111                     	;# 
   654     0112                     	;# 
   655     0113                     	;# 
   656     0114                     	;# 
   657     0115                     	;# 
   658     0116                     	;# 
   659     0117                     	;# 
   660     0118                     	;# 
   661     0119                     	;# 
   662     011A                     	;# 
   663     011B                     	;# 
   664     011D                     	;# 
   665     018C                     	;# 
   666     018D                     	;# 
   667     0191                     	;# 
   668     0191                     	;# 
   669     0192                     	;# 
   670     0193                     	;# 
   671     0193                     	;# 
   672     0193                     	;# 
   673     0194                     	;# 
   674     0195                     	;# 
   675     0196                     	;# 
   676     0199                     	;# 
   677     019A                     	;# 
   678     019B                     	;# 
   679     019B                     	;# 
   680     019B                     	;# 
   681     019B                     	;# 
   682     019C                     	;# 
   683     019C                     	;# 
   684     019D                     	;# 
   685     019E                     	;# 
   686     019F                     	;# 
   687     020D                     	;# 
   688     0210                     	;# 
   689     0211                     	;# 
   690     0212                     	;# 
   691     0213                     	;# 
   692     0214                     	;# 
   693     0215                     	;# 
   694     0215                     	;# 
   695     0216                     	;# 
   696     0217                     	;# 
   697     0291                     	;# 
   698     0291                     	;# 
   699     0292                     	;# 
   700     0293                     	;# 
   701     0294                     	;# 
   702     0295                     	;# 
   703     0295                     	;# 
   704     0296                     	;# 
   705     0298                     	;# 
   706     0298                     	;# 
   707     0299                     	;# 
   708     029A                     	;# 
   709     029B                     	;# 
   710     029C                     	;# 
   711     029C                     	;# 
   712     029D                     	;# 
   713     029E                     	;# 
   714     029F                     	;# 
   715     0311                     	;# 
   716     0311                     	;# 
   717     0312                     	;# 
   718     0313                     	;# 
   719     0314                     	;# 
   720     0315                     	;# 
   721     0315                     	;# 
   722     0316                     	;# 
   723     0318                     	;# 
   724     0318                     	;# 
   725     0319                     	;# 
   726     031A                     	;# 
   727     031C                     	;# 
   728     031C                     	;# 
   729     031D                     	;# 
   730     031E                     	;# 
   731     0394                     	;# 
   732     0395                     	;# 
   733     0396                     	;# 
   734     0415                     	;# 
   735     0416                     	;# 
   736     0417                     	;# 
   737     041C                     	;# 
   738     041D                     	;# 
   739     041E                     	;# 
   740     0791                     	;# 
   741     0792                     	;# 
   742     0793                     	;# 
   743     0794                     	;# 
   744     0795                     	;# 
   745     0798                     	;# 
   746     0799                     	;# 
   747     07A0                     	;# 
   748     07A1                     	;# 
   749     07A3                     	;# 
   750     07A4                     	;# 
   751     07A6                     	;# 
   752     07A7                     	;# 
   753     07A9                     	;# 
   754     07AA                     	;# 
   755     0FE4                     	;# 
   756     0FE5                     	;# 
   757     0FE6                     	;# 
   758     0FE7                     	;# 
   759     0FE8                     	;# 
   760     0FE9                     	;# 
   761     0FEA                     	;# 
   762     0FEB                     	;# 
   763     0FED                     	;# 
   764     0FEE                     	;# 
   765     0FEF                     	;# 
   766     0000                     	;# 
   767     0001                     	;# 
   768     0002                     	;# 
   769     0003                     	;# 
   770     0004                     	;# 
   771     0005                     	;# 
   772     0006                     	;# 
   773     0007                     	;# 
   774     0008                     	;# 
   775     0009                     	;# 
   776     000A                     	;# 
   777     000B                     	;# 
   778     000C                     	;# 
   779     000D                     	;# 
   780     000E                     	;# 
   781     0010                     	;# 
   782     0011                     	;# 
   783     0012                     	;# 
   784     0013                     	;# 
   785     0015                     	;# 
   786     0016                     	;# 
   787     0016                     	;# 
   788     0017                     	;# 
   789     0018                     	;# 
   790     0019                     	;# 
   791     001A                     	;# 
   792     001B                     	;# 
   793     001C                     	;# 
   794     001E                     	;# 
   795     001F                     	;# 
   796     008C                     	;# 
   797     008D                     	;# 
   798     008E                     	;# 
   799     0090                     	;# 
   800     0091                     	;# 
   801     0092                     	;# 
   802     0093                     	;# 
   803     0095                     	;# 
   804     0096                     	;# 
   805     0097                     	;# 
   806     0098                     	;# 
   807     0099                     	;# 
   808     009A                     	;# 
   809     009B                     	;# 
   810     009B                     	;# 
   811     009C                     	;# 
   812     009D                     	;# 
   813     009E                     	;# 
   814     010C                     	;# 
   815     010D                     	;# 
   816     010E                     	;# 
   817     0110                     	;# 
   818     0111                     	;# 
   819     0112                     	;# 
   820     0113                     	;# 
   821     0114                     	;# 
   822     0115                     	;# 
   823     0116                     	;# 
   824     0117                     	;# 
   825     0118                     	;# 
   826     0119                     	;# 
   827     011A                     	;# 
   828     011B                     	;# 
   829     011D                     	;# 
   830     018C                     	;# 
   831     018D                     	;# 
   832     0191                     	;# 
   833     0191                     	;# 
   834     0192                     	;# 
   835     0193                     	;# 
   836     0193                     	;# 
   837     0193                     	;# 
   838     0194                     	;# 
   839     0195                     	;# 
   840     0196                     	;# 
   841     0199                     	;# 
   842     019A                     	;# 
   843     019B                     	;# 
   844     019B                     	;# 
   845     019B                     	;# 
   846     019B                     	;# 
   847     019C                     	;# 
   848     019C                     	;# 
   849     019D                     	;# 
   850     019E                     	;# 
   851     019F                     	;# 
   852     020D                     	;# 
   853     0210                     	;# 
   854     0211                     	;# 
   855     0212                     	;# 
   856     0213                     	;# 
   857     0214                     	;# 
   858     0215                     	;# 
   859     0215                     	;# 
   860     0216                     	;# 
   861     0217                     	;# 
   862     0291                     	;# 
   863     0291                     	;# 
   864     0292                     	;# 
   865     0293                     	;# 
   866     0294                     	;# 
   867     0295                     	;# 
   868     0295                     	;# 
   869     0296                     	;# 
   870     0298                     	;# 
   871     0298                     	;# 
   872     0299                     	;# 
   873     029A                     	;# 
   874     029B                     	;# 
   875     029C                     	;# 
   876     029C                     	;# 
   877     029D                     	;# 
   878     029E                     	;# 
   879     029F                     	;# 
   880     0311                     	;# 
   881     0311                     	;# 
   882     0312                     	;# 
   883     0313                     	;# 
   884     0314                     	;# 
   885     0315                     	;# 
   886     0315                     	;# 
   887     0316                     	;# 
   888     0318                     	;# 
   889     0318                     	;# 
   890     0319                     	;# 
   891     031A                     	;# 
   892     031C                     	;# 
   893     031C                     	;# 
   894     031D                     	;# 
   895     031E                     	;# 
   896     0394                     	;# 
   897     0395                     	;# 
   898     0396                     	;# 
   899     0415                     	;# 
   900     0416                     	;# 
   901     0417                     	;# 
   902     041C                     	;# 
   903     041D                     	;# 
   904     041E                     	;# 
   905     0791                     	;# 
   906     0792                     	;# 
   907     0793                     	;# 
   908     0794                     	;# 
   909     0795                     	;# 
   910     0798                     	;# 
   911     0799                     	;# 
   912     07A0                     	;# 
   913     07A1                     	;# 
   914     07A3                     	;# 
   915     07A4                     	;# 
   916     07A6                     	;# 
   917     07A7                     	;# 
   918     07A9                     	;# 
   919     07AA                     	;# 
   920     0FE4                     	;# 
   921     0FE5                     	;# 
   922     0FE6                     	;# 
   923     0FE7                     	;# 
   924     0FE8                     	;# 
   925     0FE9                     	;# 
   926     0FEA                     	;# 
   927     0FEB                     	;# 
   928     0FED                     	;# 
   929     0FEE                     	;# 
   930     0FEF                     	;# 
   931     0000                     	;# 
   932     0001                     	;# 
   933     0002                     	;# 
   934     0003                     	;# 
   935     0004                     	;# 
   936     0005                     	;# 
   937     0006                     	;# 
   938     0007                     	;# 
   939     0008                     	;# 
   940     0009                     	;# 
   941     000A                     	;# 
   942     000B                     	;# 
   943     000C                     	;# 
   944     000D                     	;# 
   945     000E                     	;# 
   946     0010                     	;# 
   947     0011                     	;# 
   948     0012                     	;# 
   949     0013                     	;# 
   950     0015                     	;# 
   951     0016                     	;# 
   952     0016                     	;# 
   953     0017                     	;# 
   954     0018                     	;# 
   955     0019                     	;# 
   956     001A                     	;# 
   957     001B                     	;# 
   958     001C                     	;# 
   959     001E                     	;# 
   960     001F                     	;# 
   961     008C                     	;# 
   962     008D                     	;# 
   963     008E                     	;# 
   964     0090                     	;# 
   965     0091                     	;# 
   966     0092                     	;# 
   967     0093                     	;# 
   968     0095                     	;# 
   969     0096                     	;# 
   970     0097                     	;# 
   971     0098                     	;# 
   972     0099                     	;# 
   973     009A                     	;# 
   974     009B                     	;# 
   975     009B                     	;# 
   976     009C                     	;# 
   977     009D                     	;# 
   978     009E                     	;# 
   979     010C                     	;# 
   980     010D                     	;# 
   981     010E                     	;# 
   982     0110                     	;# 
   983     0111                     	;# 
   984     0112                     	;# 
   985     0113                     	;# 
   986     0114                     	;# 
   987     0115                     	;# 
   988     0116                     	;# 
   989     0117                     	;# 
   990     0118                     	;# 
   991     0119                     	;# 
   992     011A                     	;# 
   993     011B                     	;# 
   994     011D                     	;# 
   995     018C                     	;# 
   996     018D                     	;# 
   997     0191                     	;# 
   998     0191                     	;# 
   999     0192                     	;# 
  1000     0193                     	;# 
  1001     0193                     	;# 
  1002     0193                     	;# 
  1003     0194                     	;# 
  1004     0195                     	;# 
  1005     0196                     	;# 
  1006     0199                     	;# 
  1007     019A                     	;# 
  1008     019B                     	;# 
  1009     019B                     	;# 
  1010     019B                     	;# 
  1011     019B                     	;# 
  1012     019C                     	;# 
  1013     019C                     	;# 
  1014     019D                     	;# 
  1015     019E                     	;# 
  1016     019F                     	;# 
  1017     020D                     	;# 
  1018     0210                     	;# 
  1019     0211                     	;# 
  1020     0212                     	;# 
  1021     0213                     	;# 
  1022     0214                     	;# 
  1023     0215                     	;# 
  1024     0215                     	;# 
  1025     0216                     	;# 
  1026     0217                     	;# 
  1027     0291                     	;# 
  1028     0291                     	;# 
  1029     0292                     	;# 
  1030     0293                     	;# 
  1031     0294                     	;# 
  1032     0295                     	;# 
  1033     0295                     	;# 
  1034     0296                     	;# 
  1035     0298                     	;# 
  1036     0298                     	;# 
  1037     0299                     	;# 
  1038     029A                     	;# 
  1039     029B                     	;# 
  1040     029C                     	;# 
  1041     029C                     	;# 
  1042     029D                     	;# 
  1043     029E                     	;# 
  1044     029F                     	;# 
  1045     0311                     	;# 
  1046     0311                     	;# 
  1047     0312                     	;# 
  1048     0313                     	;# 
  1049     0314                     	;# 
  1050     0315                     	;# 
  1051     0315                     	;# 
  1052     0316                     	;# 
  1053     0318                     	;# 
  1054     0318                     	;# 
  1055     0319                     	;# 
  1056     031A                     	;# 
  1057     031C                     	;# 
  1058     031C                     	;# 
  1059     031D                     	;# 
  1060     031E                     	;# 
  1061     0394                     	;# 
  1062     0395                     	;# 
  1063     0396                     	;# 
  1064     0415                     	;# 
  1065     0416                     	;# 
  1066     0417                     	;# 
  1067     041C                     	;# 
  1068     041D                     	;# 
  1069     041E                     	;# 
  1070     0791                     	;# 
  1071     0792                     	;# 
  1072     0793                     	;# 
  1073     0794                     	;# 
  1074     0795                     	;# 
  1075     0798                     	;# 
  1076     0799                     	;# 
  1077     07A0                     	;# 
  1078     07A1                     	;# 
  1079     07A3                     	;# 
  1080     07A4                     	;# 
  1081     07A6                     	;# 
  1082     07A7                     	;# 
  1083     07A9                     	;# 
  1084     07AA                     	;# 
  1085     0FE4                     	;# 
  1086     0FE5                     	;# 
  1087     0FE6                     	;# 
  1088     0FE7                     	;# 
  1089     0FE8                     	;# 
  1090     0FE9                     	;# 
  1091     0FEA                     	;# 
  1092     0FEB                     	;# 
  1093     0FED                     	;# 
  1094     0FEE                     	;# 
  1095     0FEF                     	;# 
  1096     0000                     	;# 
  1097     0001                     	;# 
  1098     0002                     	;# 
  1099     0003                     	;# 
  1100     0004                     	;# 
  1101     0005                     	;# 
  1102     0006                     	;# 
  1103     0007                     	;# 
  1104     0008                     	;# 
  1105     0009                     	;# 
  1106     000A                     	;# 
  1107     000B                     	;# 
  1108     000C                     	;# 
  1109     000D                     	;# 
  1110     000E                     	;# 
  1111     0010                     	;# 
  1112     0011                     	;# 
  1113     0012                     	;# 
  1114     0013                     	;# 
  1115     0015                     	;# 
  1116     0016                     	;# 
  1117     0016                     	;# 
  1118     0017                     	;# 
  1119     0018                     	;# 
  1120     0019                     	;# 
  1121     001A                     	;# 
  1122     001B                     	;# 
  1123     001C                     	;# 
  1124     001E                     	;# 
  1125     001F                     	;# 
  1126     008C                     	;# 
  1127     008D                     	;# 
  1128     008E                     	;# 
  1129     0090                     	;# 
  1130     0091                     	;# 
  1131     0092                     	;# 
  1132     0093                     	;# 
  1133     0095                     	;# 
  1134     0096                     	;# 
  1135     0097                     	;# 
  1136     0098                     	;# 
  1137     0099                     	;# 
  1138     009A                     	;# 
  1139     009B                     	;# 
  1140     009B                     	;# 
  1141     009C                     	;# 
  1142     009D                     	;# 
  1143     009E                     	;# 
  1144     010C                     	;# 
  1145     010D                     	;# 
  1146     010E                     	;# 
  1147     0110                     	;# 
  1148     0111                     	;# 
  1149     0112                     	;# 
  1150     0113                     	;# 
  1151     0114                     	;# 
  1152     0115                     	;# 
  1153     0116                     	;# 
  1154     0117                     	;# 
  1155     0118                     	;# 
  1156     0119                     	;# 
  1157     011A                     	;# 
  1158     011B                     	;# 
  1159     011D                     	;# 
  1160     018C                     	;# 
  1161     018D                     	;# 
  1162     0191                     	;# 
  1163     0191                     	;# 
  1164     0192                     	;# 
  1165     0193                     	;# 
  1166     0193                     	;# 
  1167     0193                     	;# 
  1168     0194                     	;# 
  1169     0195                     	;# 
  1170     0196                     	;# 
  1171     0199                     	;# 
  1172     019A                     	;# 
  1173     019B                     	;# 
  1174     019B                     	;# 
  1175     019B                     	;# 
  1176     019B                     	;# 
  1177     019C                     	;# 
  1178     019C                     	;# 
  1179     019D                     	;# 
  1180     019E                     	;# 
  1181     019F                     	;# 
  1182     020D                     	;# 
  1183     0210                     	;# 
  1184     0211                     	;# 
  1185     0212                     	;# 
  1186     0213                     	;# 
  1187     0214                     	;# 
  1188     0215                     	;# 
  1189     0215                     	;# 
  1190     0216                     	;# 
  1191     0217                     	;# 
  1192     0291                     	;# 
  1193     0291                     	;# 
  1194     0292                     	;# 
  1195     0293                     	;# 
  1196     0294                     	;# 
  1197     0295                     	;# 
  1198     0295                     	;# 
  1199     0296                     	;# 
  1200     0298                     	;# 
  1201     0298                     	;# 
  1202     0299                     	;# 
  1203     029A                     	;# 
  1204     029B                     	;# 
  1205     029C                     	;# 
  1206     029C                     	;# 
  1207     029D                     	;# 
  1208     029E                     	;# 
  1209     029F                     	;# 
  1210     0311                     	;# 
  1211     0311                     	;# 
  1212     0312                     	;# 
  1213     0313                     	;# 
  1214     0314                     	;# 
  1215     0315                     	;# 
  1216     0315                     	;# 
  1217     0316                     	;# 
  1218     0318                     	;# 
  1219     0318                     	;# 
  1220     0319                     	;# 
  1221     031A                     	;# 
  1222     031C                     	;# 
  1223     031C                     	;# 
  1224     031D                     	;# 
  1225     031E                     	;# 
  1226     0394                     	;# 
  1227     0395                     	;# 
  1228     0396                     	;# 
  1229     0415                     	;# 
  1230     0416                     	;# 
  1231     0417                     	;# 
  1232     041C                     	;# 
  1233     041D                     	;# 
  1234     041E                     	;# 
  1235     0791                     	;# 
  1236     0792                     	;# 
  1237     0793                     	;# 
  1238     0794                     	;# 
  1239     0795                     	;# 
  1240     0798                     	;# 
  1241     0799                     	;# 
  1242     07A0                     	;# 
  1243     07A1                     	;# 
  1244     07A3                     	;# 
  1245     07A4                     	;# 
  1246     07A6                     	;# 
  1247     07A7                     	;# 
  1248     07A9                     	;# 
  1249     07AA                     	;# 
  1250     0FE4                     	;# 
  1251     0FE5                     	;# 
  1252     0FE6                     	;# 
  1253     0FE7                     	;# 
  1254     0FE8                     	;# 
  1255     0FE9                     	;# 
  1256     0FEA                     	;# 
  1257     0FEB                     	;# 
  1258     0FED                     	;# 
  1259     0FEE                     	;# 
  1260     0FEF                     	;# 
  1261     0000                     	;# 
  1262     0001                     	;# 
  1263     0002                     	;# 
  1264     0003                     	;# 
  1265     0004                     	;# 
  1266     0005                     	;# 
  1267     0006                     	;# 
  1268     0007                     	;# 
  1269     0008                     	;# 
  1270     0009                     	;# 
  1271     000A                     	;# 
  1272     000B                     	;# 
  1273     000C                     	;# 
  1274     000D                     	;# 
  1275     000E                     	;# 
  1276     0010                     	;# 
  1277     0011                     	;# 
  1278     0012                     	;# 
  1279     0013                     	;# 
  1280     0015                     	;# 
  1281     0016                     	;# 
  1282     0016                     	;# 
  1283     0017                     	;# 
  1284     0018                     	;# 
  1285     0019                     	;# 
  1286     001A                     	;# 
  1287     001B                     	;# 
  1288     001C                     	;# 
  1289     001E                     	;# 
  1290     001F                     	;# 
  1291     008C                     	;# 
  1292     008D                     	;# 
  1293     008E                     	;# 
  1294     0090                     	;# 
  1295     0091                     	;# 
  1296     0092                     	;# 
  1297     0093                     	;# 
  1298     0095                     	;# 
  1299     0096                     	;# 
  1300     0097                     	;# 
  1301     0098                     	;# 
  1302     0099                     	;# 
  1303     009A                     	;# 
  1304     009B                     	;# 
  1305     009B                     	;# 
  1306     009C                     	;# 
  1307     009D                     	;# 
  1308     009E                     	;# 
  1309     010C                     	;# 
  1310     010D                     	;# 
  1311     010E                     	;# 
  1312     0110                     	;# 
  1313     0111                     	;# 
  1314     0112                     	;# 
  1315     0113                     	;# 
  1316     0114                     	;# 
  1317     0115                     	;# 
  1318     0116                     	;# 
  1319     0117                     	;# 
  1320     0118                     	;# 
  1321     0119                     	;# 
  1322     011A                     	;# 
  1323     011B                     	;# 
  1324     011D                     	;# 
  1325     018C                     	;# 
  1326     018D                     	;# 
  1327     0191                     	;# 
  1328     0191                     	;# 
  1329     0192                     	;# 
  1330     0193                     	;# 
  1331     0193                     	;# 
  1332     0193                     	;# 
  1333     0194                     	;# 
  1334     0195                     	;# 
  1335     0196                     	;# 
  1336     0199                     	;# 
  1337     019A                     	;# 
  1338     019B                     	;# 
  1339     019B                     	;# 
  1340     019B                     	;# 
  1341     019B                     	;# 
  1342     019C                     	;# 
  1343     019C                     	;# 
  1344     019D                     	;# 
  1345     019E                     	;# 
  1346     019F                     	;# 
  1347     020D                     	;# 
  1348     0210                     	;# 
  1349     0211                     	;# 
  1350     0212                     	;# 
  1351     0213                     	;# 
  1352     0214                     	;# 
  1353     0215                     	;# 
  1354     0215                     	;# 
  1355     0216                     	;# 
  1356     0217                     	;# 
  1357     0291                     	;# 
  1358     0291                     	;# 
  1359     0292                     	;# 
  1360     0293                     	;# 
  1361     0294                     	;# 
  1362     0295                     	;# 
  1363     0295                     	;# 
  1364     0296                     	;# 
  1365     0298                     	;# 
  1366     0298                     	;# 
  1367     0299                     	;# 
  1368     029A                     	;# 
  1369     029B                     	;# 
  1370     029C                     	;# 
  1371     029C                     	;# 
  1372     029D                     	;# 
  1373     029E                     	;# 
  1374     029F                     	;# 
  1375     0311                     	;# 
  1376     0311                     	;# 
  1377     0312                     	;# 
  1378     0313                     	;# 
  1379     0314                     	;# 
  1380     0315                     	;# 
  1381     0315                     	;# 
  1382     0316                     	;# 
  1383     0318                     	;# 
  1384     0318                     	;# 
  1385     0319                     	;# 
  1386     031A                     	;# 
  1387     031C                     	;# 
  1388     031C                     	;# 
  1389     031D                     	;# 
  1390     031E                     	;# 
  1391     0394                     	;# 
  1392     0395                     	;# 
  1393     0396                     	;# 
  1394     0415                     	;# 
  1395     0416                     	;# 
  1396     0417                     	;# 
  1397     041C                     	;# 
  1398     041D                     	;# 
  1399     041E                     	;# 
  1400     0791                     	;# 
  1401     0792                     	;# 
  1402     0793                     	;# 
  1403     0794                     	;# 
  1404     0795                     	;# 
  1405     0798                     	;# 
  1406     0799                     	;# 
  1407     07A0                     	;# 
  1408     07A1                     	;# 
  1409     07A3                     	;# 
  1410     07A4                     	;# 
  1411     07A6                     	;# 
  1412     07A7                     	;# 
  1413     07A9                     	;# 
  1414     07AA                     	;# 
  1415     0FE4                     	;# 
  1416     0FE5                     	;# 
  1417     0FE6                     	;# 
  1418     0FE7                     	;# 
  1419     0FE8                     	;# 
  1420     0FE9                     	;# 
  1421     0FEA                     	;# 
  1422     0FEB                     	;# 
  1423     0FED                     	;# 
  1424     0FEE                     	;# 
  1425     0FEF                     	;# 
  1426     0000                     	;# 
  1427     0001                     	;# 
  1428     0002                     	;# 
  1429     0003                     	;# 
  1430     0004                     	;# 
  1431     0005                     	;# 
  1432     0006                     	;# 
  1433     0007                     	;# 
  1434     0008                     	;# 
  1435     0009                     	;# 
  1436     000A                     	;# 
  1437     000B                     	;# 
  1438     000C                     	;# 
  1439     000D                     	;# 
  1440     000E                     	;# 
  1441     0010                     	;# 
  1442     0011                     	;# 
  1443     0012                     	;# 
  1444     0013                     	;# 
  1445     0015                     	;# 
  1446     0016                     	;# 
  1447     0016                     	;# 
  1448     0017                     	;# 
  1449     0018                     	;# 
  1450     0019                     	;# 
  1451     001A                     	;# 
  1452     001B                     	;# 
  1453     001C                     	;# 
  1454     001E                     	;# 
  1455     001F                     	;# 
  1456     008C                     	;# 
  1457     008D                     	;# 
  1458     008E                     	;# 
  1459     0090                     	;# 
  1460     0091                     	;# 
  1461     0092                     	;# 
  1462     0093                     	;# 
  1463     0095                     	;# 
  1464     0096                     	;# 
  1465     0097                     	;# 
  1466     0098                     	;# 
  1467     0099                     	;# 
  1468     009A                     	;# 
  1469     009B                     	;# 
  1470     009B                     	;# 
  1471     009C                     	;# 
  1472     009D                     	;# 
  1473     009E                     	;# 
  1474     010C                     	;# 
  1475     010D                     	;# 
  1476     010E                     	;# 
  1477     0110                     	;# 
  1478     0111                     	;# 
  1479     0112                     	;# 
  1480     0113                     	;# 
  1481     0114                     	;# 
  1482     0115                     	;# 
  1483     0116                     	;# 
  1484     0117                     	;# 
  1485     0118                     	;# 
  1486     0119                     	;# 
  1487     011A                     	;# 
  1488     011B                     	;# 
  1489     011D                     	;# 
  1490     018C                     	;# 
  1491     018D                     	;# 
  1492     0191                     	;# 
  1493     0191                     	;# 
  1494     0192                     	;# 
  1495     0193                     	;# 
  1496     0193                     	;# 
  1497     0193                     	;# 
  1498     0194                     	;# 
  1499     0195                     	;# 
  1500     0196                     	;# 
  1501     0199                     	;# 
  1502     019A                     	;# 
  1503     019B                     	;# 
  1504     019B                     	;# 
  1505     019B                     	;# 
  1506     019B                     	;# 
  1507     019C                     	;# 
  1508     019C                     	;# 
  1509     019D                     	;# 
  1510     019E                     	;# 
  1511     019F                     	;# 
  1512     020D                     	;# 
  1513     0210                     	;# 
  1514     0211                     	;# 
  1515     0212                     	;# 
  1516     0213                     	;# 
  1517     0214                     	;# 
  1518     0215                     	;# 
  1519     0215                     	;# 
  1520     0216                     	;# 
  1521     0217                     	;# 
  1522     0291                     	;# 
  1523     0291                     	;# 
  1524     0292                     	;# 
  1525     0293                     	;# 
  1526     0294                     	;# 
  1527     0295                     	;# 
  1528     0295                     	;# 
  1529     0296                     	;# 
  1530     0298                     	;# 
  1531     0298                     	;# 
  1532     0299                     	;# 
  1533     029A                     	;# 
  1534     029B                     	;# 
  1535     029C                     	;# 
  1536     029C                     	;# 
  1537     029D                     	;# 
  1538     029E                     	;# 
  1539     029F                     	;# 
  1540     0311                     	;# 
  1541     0311                     	;# 
  1542     0312                     	;# 
  1543     0313                     	;# 
  1544     0314                     	;# 
  1545     0315                     	;# 
  1546     0315                     	;# 
  1547     0316                     	;# 
  1548     0318                     	;# 
  1549     0318                     	;# 
  1550     0319                     	;# 
  1551     031A                     	;# 
  1552     031C                     	;# 
  1553     031C                     	;# 
  1554     031D                     	;# 
  1555     031E                     	;# 
  1556     0394                     	;# 
  1557     0395                     	;# 
  1558     0396                     	;# 
  1559     0415                     	;# 
  1560     0416                     	;# 
  1561     0417                     	;# 
  1562     041C                     	;# 
  1563     041D                     	;# 
  1564     041E                     	;# 
  1565     0791                     	;# 
  1566     0792                     	;# 
  1567     0793                     	;# 
  1568     0794                     	;# 
  1569     0795                     	;# 
  1570     0798                     	;# 
  1571     0799                     	;# 
  1572     07A0                     	;# 
  1573     07A1                     	;# 
  1574     07A3                     	;# 
  1575     07A4                     	;# 
  1576     07A6                     	;# 
  1577     07A7                     	;# 
  1578     07A9                     	;# 
  1579     07AA                     	;# 
  1580     0FE4                     	;# 
  1581     0FE5                     	;# 
  1582     0FE6                     	;# 
  1583     0FE7                     	;# 
  1584     0FE8                     	;# 
  1585     0FE9                     	;# 
  1586     0FEA                     	;# 
  1587     0FEB                     	;# 
  1588     0FED                     	;# 
  1589     0FEE                     	;# 
  1590     0FEF                     	;# 
  1591     0000                     	;# 
  1592     0001                     	;# 
  1593     0002                     	;# 
  1594     0003                     	;# 
  1595     0004                     	;# 
  1596     0005                     	;# 
  1597     0006                     	;# 
  1598     0007                     	;# 
  1599     0008                     	;# 
  1600     0009                     	;# 
  1601     000A                     	;# 
  1602     000B                     	;# 
  1603     000C                     	;# 
  1604     000D                     	;# 
  1605     000E                     	;# 
  1606     0010                     	;# 
  1607     0011                     	;# 
  1608     0012                     	;# 
  1609     0013                     	;# 
  1610     0015                     	;# 
  1611     0016                     	;# 
  1612     0016                     	;# 
  1613     0017                     	;# 
  1614     0018                     	;# 
  1615     0019                     	;# 
  1616     001A                     	;# 
  1617     001B                     	;# 
  1618     001C                     	;# 
  1619     001E                     	;# 
  1620     001F                     	;# 
  1621     008C                     	;# 
  1622     008D                     	;# 
  1623     008E                     	;# 
  1624     0090                     	;# 
  1625     0091                     	;# 
  1626     0092                     	;# 
  1627     0093                     	;# 
  1628     0095                     	;# 
  1629     0096                     	;# 
  1630     0097                     	;# 
  1631     0098                     	;# 
  1632     0099                     	;# 
  1633     009A                     	;# 
  1634     009B                     	;# 
  1635     009B                     	;# 
  1636     009C                     	;# 
  1637     009D                     	;# 
  1638     009E                     	;# 
  1639     010C                     	;# 
  1640     010D                     	;# 
  1641     010E                     	;# 
  1642     0110                     	;# 
  1643     0111                     	;# 
  1644     0112                     	;# 
  1645     0113                     	;# 
  1646     0114                     	;# 
  1647     0115                     	;# 
  1648     0116                     	;# 
  1649     0117                     	;# 
  1650     0118                     	;# 
  1651     0119                     	;# 
  1652     011A                     	;# 
  1653     011B                     	;# 
  1654     011D                     	;# 
  1655     018C                     	;# 
  1656     018D                     	;# 
  1657     0191                     	;# 
  1658     0191                     	;# 
  1659     0192                     	;# 
  1660     0193                     	;# 
  1661     0193                     	;# 
  1662     0193                     	;# 
  1663     0194                     	;# 
  1664     0195                     	;# 
  1665     0196                     	;# 
  1666     0199                     	;# 
  1667     019A                     	;# 
  1668     019B                     	;# 
  1669     019B                     	;# 
  1670     019B                     	;# 
  1671     019B                     	;# 
  1672     019C                     	;# 
  1673     019C                     	;# 
  1674     019D                     	;# 
  1675     019E                     	;# 
  1676     019F                     	;# 
  1677     020D                     	;# 
  1678     0210                     	;# 
  1679     0211                     	;# 
  1680     0212                     	;# 
  1681     0213                     	;# 
  1682     0214                     	;# 
  1683     0215                     	;# 
  1684     0215                     	;# 
  1685     0216                     	;# 
  1686     0217                     	;# 
  1687     0291                     	;# 
  1688     0291                     	;# 
  1689     0292                     	;# 
  1690     0293                     	;# 
  1691     0294                     	;# 
  1692     0295                     	;# 
  1693     0295                     	;# 
  1694     0296                     	;# 
  1695     0298                     	;# 
  1696     0298                     	;# 
  1697     0299                     	;# 
  1698     029A                     	;# 
  1699     029B                     	;# 
  1700     029C                     	;# 
  1701     029C                     	;# 
  1702     029D                     	;# 
  1703     029E                     	;# 
  1704     029F                     	;# 
  1705     0311                     	;# 
  1706     0311                     	;# 
  1707     0312                     	;# 
  1708     0313                     	;# 
  1709     0314                     	;# 
  1710     0315                     	;# 
  1711     0315                     	;# 
  1712     0316                     	;# 
  1713     0318                     	;# 
  1714     0318                     	;# 
  1715     0319                     	;# 
  1716     031A                     	;# 
  1717     031C                     	;# 
  1718     031C                     	;# 
  1719     031D                     	;# 
  1720     031E                     	;# 
  1721     0394                     	;# 
  1722     0395                     	;# 
  1723     0396                     	;# 
  1724     0415                     	;# 
  1725     0416                     	;# 
  1726     0417                     	;# 
  1727     041C                     	;# 
  1728     041D                     	;# 
  1729     041E                     	;# 
  1730     0791                     	;# 
  1731     0792                     	;# 
  1732     0793                     	;# 
  1733     0794                     	;# 
  1734     0795                     	;# 
  1735     0798                     	;# 
  1736     0799                     	;# 
  1737     07A0                     	;# 
  1738     07A1                     	;# 
  1739     07A3                     	;# 
  1740     07A4                     	;# 
  1741     07A6                     	;# 
  1742     07A7                     	;# 
  1743     07A9                     	;# 
  1744     07AA                     	;# 
  1745     0FE4                     	;# 
  1746     0FE5                     	;# 
  1747     0FE6                     	;# 
  1748     0FE7                     	;# 
  1749     0FE8                     	;# 
  1750     0FE9                     	;# 
  1751     0FEA                     	;# 
  1752     0FEB                     	;# 
  1753     0FED                     	;# 
  1754     0FEE                     	;# 
  1755     0FEF                     	;# 
  1756                           
  1757                           	psect	idataBANK0
  1758     03BA                     __pidataBANK0:
  1759                           
  1760                           ;initializer for _positive_pulse_width_us_min
  1761     03BA  34FF               	retlw	255
  1762                           
  1763                           	psect	stringtext1
  1764     01D3                     __pstringtext1:
  1765     01D3                     _CS:
  1766     01D3  344C               	retlw	76
  1767     01D4  349F               	retlw	159
  1768     01D5  34ED               	retlw	237
  1769     01D6  343E               	retlw	62
  1770     01D7  3466               	retlw	102
  1771     01D8  34B5               	retlw	181
  1772     01D9  34C7               	retlw	199
  1773     01DA  3414               	retlw	20
  1774     01DB  3459               	retlw	89
  1775     01DC  348A               	retlw	138
  1776     01DD  34F8               	retlw	248
  1777     01DE  342B               	retlw	43
  1778     01DF  3473               	retlw	115
  1779     01E0  34A0               	retlw	160
  1780     01E1  34D2               	retlw	210
  1781     01E2  3401               	retlw	1
  1782     01E3  348E               	retlw	142
  1783     01E4  345D               	retlw	93
  1784     01E5  342F               	retlw	47
  1785     01E6  34FC               	retlw	252
  1786     01E7  34A4               	retlw	164
  1787     01E8  3477               	retlw	119
  1788     01E9  3405               	retlw	5
  1789     01EA  34D6               	retlw	214
  1790     01EB  349B               	retlw	155
  1791     01EC  3448               	retlw	72
  1792     01ED  343A               	retlw	58
  1793     01EE  34E9               	retlw	233
  1794     01EF  34B1               	retlw	177
  1795     01F0  3462               	retlw	98
  1796     01F1  3410               	retlw	16
  1797     01F2  34C3               	retlw	195
  1798     01F3  342D               	retlw	45
  1799     01F4  34FE               	retlw	254
  1800     01F5  348C               	retlw	140
  1801     01F6  345F               	retlw	95
  1802     01F7  3407               	retlw	7
  1803     01F8  34D4               	retlw	212
  1804     01F9  34A6               	retlw	166
  1805     01FA  3475               	retlw	117
  1806     01FB  3438               	retlw	56
  1807     01FC  34EB               	retlw	235
  1808     01FD  3499               	retlw	153
  1809     01FE  344A               	retlw	74
  1810     01FF  3412               	retlw	18
  1811     0200  34C1               	retlw	193
  1812     0201  34B3               	retlw	179
  1813     0202  3460               	retlw	96
  1814     0203  34EF               	retlw	239
  1815     0204  343C               	retlw	60
  1816     0205  344E               	retlw	78
  1817     0206  349D               	retlw	157
  1818     0207  34C5               	retlw	197
  1819     0208  3416               	retlw	22
  1820     0209  3464               	retlw	100
  1821     020A  34B7               	retlw	183
  1822     020B  34FA               	retlw	250
  1823     020C  3429               	retlw	41
  1824     020D  345B               	retlw	91
  1825     020E  3488               	retlw	136
  1826     020F  34D0               	retlw	208
  1827     0210  3403               	retlw	3
  1828     0211  3471               	retlw	113
  1829     0212  34A2               	retlw	162
  1830     0213                     __end_of_CS:
  1831                           
  1832                           	psect	stringtext2
  1833     03BB                     __pstringtext2:
  1834     03BB                     _BIT_7:
  1835     03BB  3407               	retlw	7
  1836     03BC                     __end_of_BIT_7:
  1837                           
  1838                           	psect	stringtext3
  1839     03BC                     __pstringtext3:
  1840     03BC                     _FALLING_EDGE_TRIG:
  1841     03BC  3404               	retlw	4
  1842     03BD                     __end_of_FALLING_EDGE_TRIG:
  1843                           
  1844                           	psect	stringtext4
  1845     03BD                     __pstringtext4:
  1846     03BD                     _RISING_EDGE_TRIG:
  1847     03BD  3405               	retlw	5
  1848     03BE                     __end_of_RISING_EDGE_TRIG:
  1849                           
  1850                           	psect	stringtext5
  1851     03BE                     __pstringtext5:
  1852     03BE                     _BUF_LENGTH:
  1853     03BE  340B               	retlw	11
  1854     03BF                     __end_of_BUF_LENGTH:
  1855                           
  1856                           	psect	stringtext6
  1857     03BF                     __pstringtext6:
  1858     03BF                     _UART_LEVEL:
  1859     03BF  3419               	retlw	25
  1860     03C0                     __end_of_UART_LEVEL:
  1861                           
  1862                           	psect	stringtext7
  1863     03C0                     __pstringtext7:
  1864     03C0                     _LOGIC_LEVEL:
  1865     03C0  3410               	retlw	16
  1866     03C1                     __end_of_LOGIC_LEVEL:
  1867                           
  1868                           	psect	stringtext8
  1869     03C1                     __pstringtext8:
  1870     03C1                     _DATA_LENGTH:
  1871     03C1  348B               	retlw	139
  1872     03C2                     __end_of_DATA_LENGTH:
  1873                           
  1874                           	psect	stringtext9
  1875     03C2                     __pstringtext9:
  1876     03C2                     _LIGHT_PID:
  1877     03C2  34C8               	retlw	200
  1878     03C3                     __end_of_LIGHT_PID:
  1879     0015                     _TMR0	set	21
  1880     0013                     _PIR3bits	set	19
  1881     000B                     _INTCONbits	set	11
  1882     0019                     _T1GCONbits	set	25
  1883     0018                     _T1CONbits	set	24
  1884     0018                     _T1CON	set	24
  1885     0011                     _PIR1bits	set	17
  1886     0016                     _TMR1L	set	22
  1887     0017                     _TMR1H	set	23
  1888     0019                     _T1GCON	set	25
  1889     0095                     _OPTION_REG	set	149
  1890     0093                     _PIE3bits	set	147
  1891     0095                     _OPTION_REGbits	set	149
  1892     008E                     _TRISC	set	142
  1893     008D                     _TRISB	set	141
  1894     008C                     _TRISA	set	140
  1895     0090                     _TRISE	set	144
  1896     0097                     _WDTCON	set	151
  1897     0098                     _OSCTUNE	set	152
  1898     0099                     _OSCCON	set	153
  1899     04D6                     _PLLR	set	1238
  1900     010D                     _LATBbits	set	269
  1901     010C                     _LATAbits	set	268
  1902     011D                     _APFCON	set	285
  1903     010E                     _LATC	set	270
  1904     010D                     _LATB	set	269
  1905     010C                     _LATA	set	268
  1906     0110                     _LATE	set	272
  1907     0116                     _BORCON	set	278
  1908     018C                     _ANSELA	set	396
  1909     018D                     _ANSELB	set	397
  1910     020D                     _WPUB	set	525
  1911     0210                     _WPUE	set	528
  1912     0311                     _CCPR3L	set	785
  1913     0312                     _CCPR3H	set	786
  1914     0313                     _CCP3CON	set	787
  1915                           
  1916                           	psect	cinit
  1917     0028                     start_initialization:	
  1918                           ; #config settings
  1919                           
  1920     0028                     __initialization:
  1921                           
  1922                           ; Initialize objects allocated to BANK0
  1923     0028  3183  23BA  3180   	fcall	__pidataBANK0	;fetch initializer
  1924     002B  00C7               	movwf	__pdataBANK0& (0+127)
  1925                           
  1926                           ; Clear objects allocated to COMMON
  1927     002C  01F0               	clrf	__pbssCOMMON& (0+127)
  1928     002D  01F1               	clrf	(__pbssCOMMON+1)& (0+127)
  1929     002E  01F2               	clrf	(__pbssCOMMON+2)& (0+127)
  1930     002F  01F3               	clrf	(__pbssCOMMON+3)& (0+127)
  1931     0030  01F4               	clrf	(__pbssCOMMON+4)& (0+127)
  1932     0031  01F5               	clrf	(__pbssCOMMON+5)& (0+127)
  1933     0032  01F6               	clrf	(__pbssCOMMON+6)& (0+127)
  1934                           
  1935                           ; Clear objects allocated to BANK0
  1936     0033  3020               	movlw	low __pbssBANK0
  1937     0034  0084               	movwf	4
  1938     0035  3000               	movlw	high __pbssBANK0
  1939     0036  0085               	movwf	5
  1940     0037  3023               	movlw	35
  1941     0038  3183  2368  3180   	fcall	clear_ram0
  1942     003B                     end_of_initialization:	
  1943                           ;End of C runtime variable initialization code
  1944                           
  1945     003B                     __end_of__initialization:
  1946     003B  107E               	bcf	int$flags,0	;clear compiler interrupt flag (level 1)
  1947     003C  0020               	movlb	0
  1948     003D  3183  2B09         	ljmp	_main	;jump to C main() function
  1949                           
  1950                           	psect	bssCOMMON
  1951     0070                     __pbssCOMMON:
  1952     0070                     ECCP3_CallBack@rising_edge_time:
  1953     0070                     	ds	2
  1954     0072                     ECCP3_CallBack@falling_edge_time:
  1955     0072                     	ds	2
  1956     0074                     ECCP3_CallBack@bit_cnt:
  1957     0074                     	ds	1
  1958     0075                     _rx_data:
  1959     0075                     	ds	1
  1960     0076                     _timer0ReloadVal:
  1961     0076                     	ds	1
  1962                           
  1963                           	psect	bssBANK0
  1964     0020                     __pbssBANK0:
  1965     0020                     _rx_buf:
  1966     0020                     	ds	11
  1967     002B                     ECCP3_CallBack@positive_pulse_width:
  1968     002B                     	ds	2
  1969     002D                     ECCP3_CallBack@negative_pulse_width:
  1970     002D                     	ds	2
  1971     002F                     TMR0_ISR@CountCallBack:
  1972     002F                     	ds	2
  1973     0031                     _TMR0_InterruptHandler:
  1974     0031                     	ds	2
  1975     0033                     _timer1ReloadVal:
  1976     0033                     	ds	2
  1977     0035                     ECCP3_CallBack@fStart_bit:
  1978     0035                     	ds	1
  1979     0036                     ECCP3_CallBack@fRise_edge:
  1980     0036                     	ds	1
  1981     0037                     ECCP3_CallBack@diff_us:
  1982     0037                     	ds	1
  1983     0038                     ECCP3_CallBack@negative_pulse_width_us:
  1984     0038                     	ds	1
  1985     0039                     ECCP3_CallBack@positive_pulse_width_us:
  1986     0039                     	ds	1
  1987     003A                     receiver_frame_data@eReceiver_step:
  1988     003A                     	ds	1
  1989     003B                     _eLamp_even:
  1990     003B                     	ds	1
  1991     003C                     _positive_pulse_width_us_max:
  1992     003C                     	ds	1
  1993     003D                     _Communication_timer:
  1994     003D                     	ds	1
  1995     003E                     _fFrame_OK:
  1996     003E                     	ds	1
  1997     003F                     _fReceiver_Byte:
  1998     003F                     	ds	1
  1999     0040                     _csFlag:
  2000     0040                     	ds	1
  2001     0041                     _D3:
  2002     0041                     	ds	1
  2003     0042                     _D2:
  2004     0042                     	ds	1
  2005                           
  2006                           	psect	dataBANK0
  2007     0047                     __pdataBANK0:
  2008     0047                     _positive_pulse_width_us_min:
  2009     0047                     	ds	1
  2010                           
  2011                           	psect	clrtext
  2012     0368                     clear_ram0:	
  2013                           ;	Called with FSR0 containing the base address, and
  2014                           ;	WREG with the size to clear
  2015                           
  2016     0368  0064               	clrwdt	;clear the watchdog before getting into this loop
  2017     0369                     clrloop0:
  2018     0369  0180               	clrf	0	;clear RAM location pointed to by FSR
  2019     036A  3101               	addfsr 0,1
  2020     036B  0B89               	decfsz	9,f	;Have we reached the end of clearing yet?
  2021     036C  2B69               	goto	clrloop0	;have we reached the end yet?
  2022     036D  3400               	retlw	0	;all done for this memory range, return
  2023                           
  2024                           	psect	cstackCOMMON
  2025     0077                     __pcstackCOMMON:
  2026     0077                     ?_PIN_MANAGER_Initialize:
  2027     0077                     ?_OSCILLATOR_Initialize:	
  2028                           ; 1 bytes @ 0x0
  2029                           
  2030     0077                     ?_WDT_Initialize:	
  2031                           ; 1 bytes @ 0x0
  2032                           
  2033     0077                     ?_ECCP3_Initialize:	
  2034                           ; 1 bytes @ 0x0
  2035                           
  2036     0077                     ?_TMR1_Initialize:	
  2037                           ; 1 bytes @ 0x0
  2038                           
  2039     0077                     ?_TMR0_Initialize:	
  2040                           ; 1 bytes @ 0x0
  2041                           
  2042     0077                     ?_TMR0_ISR:	
  2043                           ; 1 bytes @ 0x0
  2044                           
  2045     0077                     ?_ECCP3_CaptureISR:	
  2046                           ; 1 bytes @ 0x0
  2047                           
  2048     0077                     ?_ECCP3_CallBack:	
  2049                           ; 1 bytes @ 0x0
  2050                           
  2051     0077                     ?_TMR0_CallBack:	
  2052                           ; 1 bytes @ 0x0
  2053                           
  2054     0077                     ?_sofaware_initialize:	
  2055                           ; 1 bytes @ 0x0
  2056                           
  2057     0077                     ?_tundra_main:	
  2058                           ; 1 bytes @ 0x0
  2059                           
  2060     0077                     ?_TMR0_10MS_Even:	
  2061                           ; 1 bytes @ 0x0
  2062                           
  2063     0077                     ??_TMR0_10MS_Even:	
  2064                           ; 1 bytes @ 0x0
  2065                           
  2066     0077                     ?_SYSTEM_Initialize:	
  2067                           ; 1 bytes @ 0x0
  2068                           
  2069     0077                     ?_TMR1_StartTimer:	
  2070                           ; 1 bytes @ 0x0
  2071                           
  2072     0077                     ?_TMR1_StopTimer:	
  2073                           ; 1 bytes @ 0x0
  2074                           
  2075     0077                     ?_TMR1_Reload:	
  2076                           ; 1 bytes @ 0x0
  2077                           
  2078     0077                     ?_TMR1_StartSinglePulseAcquisition:	
  2079                           ; 1 bytes @ 0x0
  2080                           
  2081     0077                     ?_TMR1_CheckGateValueStatus:	
  2082                           ; 1 bytes @ 0x0
  2083                           
  2084     0077                     ?_TMR1_HasOverflowOccured:	
  2085                           ; 1 bytes @ 0x0
  2086                           
  2087     0077                     ?_PIN_MANAGER_IOC:	
  2088                           ; 1 bytes @ 0x0
  2089                           
  2090     0077                     ?_INTERRUPT_InterruptManager:	
  2091                           ; 1 bytes @ 0x0
  2092                           
  2093     0077                     ?_TMR0_ReadTimer:	
  2094                           ; 1 bytes @ 0x0
  2095                           
  2096     0077                     ?_TMR0_WriteTimer:	
  2097                           ; 1 bytes @ 0x0
  2098                           
  2099     0077                     ?_TMR0_Reload:	
  2100                           ; 1 bytes @ 0x0
  2101                           
  2102     0077                     ?_DRL_ON:	
  2103                           ; 1 bytes @ 0x0
  2104                           
  2105     0077                     ?_DRL_OFF:	
  2106                           ; 1 bytes @ 0x0
  2107                           
  2108     0077                     ?_POS_ON:	
  2109                           ; 1 bytes @ 0x0
  2110                           
  2111     0077                     ?_POS_OFF:	
  2112                           ; 1 bytes @ 0x0
  2113                           
  2114     0077                     ?_FAN_ON:	
  2115                           ; 1 bytes @ 0x0
  2116                           
  2117     0077                     ?_FAN_OFF:	
  2118                           ; 1 bytes @ 0x0
  2119                           
  2120     0077                     ?_LOBEAM_ON:	
  2121                           ; 1 bytes @ 0x0
  2122                           
  2123     0077                     ?_LOBEAM_OFF:	
  2124                           ; 1 bytes @ 0x0
  2125                           
  2126     0077                     ?_HIBEAM_ON:	
  2127                           ; 1 bytes @ 0x0
  2128                           
  2129     0077                     ?_HIBEAM_OFF:	
  2130                           ; 1 bytes @ 0x0
  2131                           
  2132     0077                     ?_Clear_No_Call_Warning:	
  2133                           ; 1 bytes @ 0x0
  2134                           
  2135     0077                     ?_analysis_of_data:	
  2136                           ; 1 bytes @ 0x0
  2137                           
  2138     0077                     ?_check_unlock_even:	
  2139                           ; 1 bytes @ 0x0
  2140                           
  2141     0077                     ?_check_lamp_off_even:	
  2142                           ; 1 bytes @ 0x0
  2143                           
  2144     0077                     ?_to_do_signal_timeout:	
  2145                           ; 1 bytes @ 0x0
  2146                           
  2147     0077                     ?_to_do_unlock:	
  2148                           ; 1 bytes @ 0x0
  2149                           
  2150     0077                     ?_to_do_lamp_off:	
  2151                           ; 1 bytes @ 0x0
  2152                           
  2153     0077                     ?_LED_control:	
  2154                           ; 1 bytes @ 0x0
  2155                           
  2156     0077                     ?_receiver_frame_data:	
  2157                           ; 1 bytes @ 0x0
  2158                           
  2159     0077                     ?_TMR1_ReadTimer:	
  2160                           ; 1 bytes @ 0x0
  2161                           
  2162     0077                     ?_main:	
  2163                           ; 2 bytes @ 0x0
  2164                           
  2165     0077                     ECCP3_CallBack@capturedValue:	
  2166                           ; 2 bytes @ 0x0
  2167                           
  2168                           
  2169                           ; 2 bytes @ 0x0
  2170     0077                     	ds	1
  2171     0078                     ??_TMR0_ISR:
  2172     0078                     ??_TMR0_CallBack:	
  2173                           ; 1 bytes @ 0x1
  2174                           
  2175                           
  2176                           ; 1 bytes @ 0x1
  2177     0078                     	ds	1
  2178     0079                     ??_ECCP3_CallBack:
  2179                           
  2180                           ; 1 bytes @ 0x2
  2181     0079                     	ds	2
  2182     007B                     ECCP3_CallBack@fUART_TX:
  2183                           
  2184                           ; 1 bytes @ 0x4
  2185     007B                     	ds	1
  2186     007C                     ??_ECCP3_CaptureISR:
  2187     007C                     ECCP3_CaptureISR@module:	
  2188                           ; 1 bytes @ 0x5
  2189                           
  2190                           
  2191                           ; 2 bytes @ 0x5
  2192     007C                     	ds	2
  2193     007E                     ??_INTERRUPT_InterruptManager:
  2194                           
  2195                           	psect	cstackBANK0
  2196     0043                     __pcstackBANK0:	
  2197                           ; 1 bytes @ 0x7
  2198                           
  2199     0043                     ??_PIN_MANAGER_Initialize:
  2200     0043                     ??_OSCILLATOR_Initialize:	
  2201                           ; 1 bytes @ 0x0
  2202                           
  2203     0043                     ??_WDT_Initialize:	
  2204                           ; 1 bytes @ 0x0
  2205                           
  2206     0043                     ??_ECCP3_Initialize:	
  2207                           ; 1 bytes @ 0x0
  2208                           
  2209     0043                     ??_TMR1_Initialize:	
  2210                           ; 1 bytes @ 0x0
  2211                           
  2212     0043                     ??_TMR0_Initialize:	
  2213                           ; 1 bytes @ 0x0
  2214                           
  2215     0043                     ??_SYSTEM_Initialize:	
  2216                           ; 1 bytes @ 0x0
  2217                           
  2218     0043                     ??_TMR1_StartTimer:	
  2219                           ; 1 bytes @ 0x0
  2220                           
  2221     0043                     ??_TMR1_StopTimer:	
  2222                           ; 1 bytes @ 0x0
  2223                           
  2224     0043                     ??_TMR1_ReadTimer:	
  2225                           ; 1 bytes @ 0x0
  2226                           
  2227     0043                     ?_TMR1_WriteTimer:	
  2228                           ; 1 bytes @ 0x0
  2229                           
  2230     0043                     ??_TMR1_StartSinglePulseAcquisition:	
  2231                           ; 1 bytes @ 0x0
  2232                           
  2233     0043                     ??_TMR1_CheckGateValueStatus:	
  2234                           ; 1 bytes @ 0x0
  2235                           
  2236     0043                     ??_TMR1_HasOverflowOccured:	
  2237                           ; 1 bytes @ 0x0
  2238                           
  2239     0043                     ??_PIN_MANAGER_IOC:	
  2240                           ; 1 bytes @ 0x0
  2241                           
  2242     0043                     ??_TMR0_ReadTimer:	
  2243                           ; 1 bytes @ 0x0
  2244                           
  2245     0043                     ??_TMR0_WriteTimer:	
  2246                           ; 1 bytes @ 0x0
  2247                           
  2248     0043                     ??_TMR0_Reload:	
  2249                           ; 1 bytes @ 0x0
  2250                           
  2251     0043                     ?_TMR0_SetInterruptHandler:	
  2252                           ; 1 bytes @ 0x0
  2253                           
  2254     0043                     ??_DRL_ON:	
  2255                           ; 1 bytes @ 0x0
  2256                           
  2257     0043                     ??_DRL_OFF:	
  2258                           ; 1 bytes @ 0x0
  2259                           
  2260     0043                     ??_POS_ON:	
  2261                           ; 1 bytes @ 0x0
  2262                           
  2263     0043                     ??_POS_OFF:	
  2264                           ; 1 bytes @ 0x0
  2265                           
  2266     0043                     ??_FAN_ON:	
  2267                           ; 1 bytes @ 0x0
  2268                           
  2269     0043                     ??_FAN_OFF:	
  2270                           ; 1 bytes @ 0x0
  2271                           
  2272     0043                     ??_LOBEAM_ON:	
  2273                           ; 1 bytes @ 0x0
  2274                           
  2275     0043                     ??_LOBEAM_OFF:	
  2276                           ; 1 bytes @ 0x0
  2277                           
  2278     0043                     ??_HIBEAM_ON:	
  2279                           ; 1 bytes @ 0x0
  2280                           
  2281     0043                     ??_HIBEAM_OFF:	
  2282                           ; 1 bytes @ 0x0
  2283                           
  2284     0043                     ??_analysis_of_data:	
  2285                           ; 1 bytes @ 0x0
  2286                           
  2287     0043                     ??_check_unlock_even:	
  2288                           ; 1 bytes @ 0x0
  2289                           
  2290     0043                     ??_check_lamp_off_even:	
  2291                           ; 1 bytes @ 0x0
  2292                           
  2293     0043                     ??_to_do_signal_timeout:	
  2294                           ; 1 bytes @ 0x0
  2295                           
  2296     0043                     ??_to_do_unlock:	
  2297                           ; 1 bytes @ 0x0
  2298                           
  2299     0043                     ??_to_do_lamp_off:	
  2300                           ; 1 bytes @ 0x0
  2301                           
  2302     0043                     ??_LED_control:	
  2303                           ; 1 bytes @ 0x0
  2304                           
  2305     0043                     ??_receiver_frame_data:	
  2306                           ; 1 bytes @ 0x0
  2307                           
  2308     0043                     TMR1_ReadTimer@readValHigh:	
  2309                           ; 1 bytes @ 0x0
  2310                           
  2311     0043                     TMR0_WriteTimer@timerVal:	
  2312                           ; 1 bytes @ 0x0
  2313                           
  2314     0043                     analysis_of_data@crc8:	
  2315                           ; 1 bytes @ 0x0
  2316                           
  2317     0043                     TMR1_WriteTimer@timerVal:	
  2318                           ; 1 bytes @ 0x0
  2319                           
  2320     0043                     TMR0_SetInterruptHandler@InterruptHandler:	
  2321                           ; 2 bytes @ 0x0
  2322                           
  2323                           
  2324                           ; 2 bytes @ 0x0
  2325     0043                     	ds	1
  2326     0044                     TMR1_ReadTimer@readValLow:
  2327     0044                     analysis_of_data@temp_index:	
  2328                           ; 1 bytes @ 0x1
  2329                           
  2330                           
  2331                           ; 1 bytes @ 0x1
  2332     0044                     	ds	1
  2333     0045                     ??_sofaware_initialize:
  2334     0045                     ??_tundra_main:	
  2335                           ; 1 bytes @ 0x2
  2336                           
  2337     0045                     ??_TMR1_WriteTimer:	
  2338                           ; 1 bytes @ 0x2
  2339                           
  2340     0045                     ??_TMR1_Reload:	
  2341                           ; 1 bytes @ 0x2
  2342                           
  2343     0045                     ??_TMR0_SetInterruptHandler:	
  2344                           ; 1 bytes @ 0x2
  2345                           
  2346     0045                     ??_Clear_No_Call_Warning:	
  2347                           ; 1 bytes @ 0x2
  2348                           
  2349                           
  2350                           ; 1 bytes @ 0x2
  2351     0045                     	ds	2
  2352     0047                     ??_main:
  2353                           
  2354                           	psect	maintext
  2355     0309                     __pmaintext:	
  2356                           ; 1 bytes @ 0x4
  2357 ;;
  2358 ;;Main: autosize = 0, tempsize = 0, incstack = 0, save=0
  2359 ;;
  2360 ;; *************** function _main *****************
  2361 ;; Defined at:
  2362 ;;		line 56 in file "main.c"
  2363 ;; Parameters:    Size  Location     Type
  2364 ;;		None
  2365 ;; Auto vars:     Size  Location     Type
  2366 ;;		None
  2367 ;; Return value:  Size  Location     Type
  2368 ;;                  2  217[None  ] int 
  2369 ;; Registers used:
  2370 ;;		wreg, fsr0l, fsr0h, status,2, status,0, pclath, cstack
  2371 ;; Tracked objects:
  2372 ;;		On entry : B1F/0
  2373 ;;		On exit  : 0/0
  2374 ;;		Unchanged: 0/0
  2375 ;; Data sizes:     COMMON   BANK0   BANK1   BANK2   BANK3   BANK4   BANK5   BANK6
  2376 ;;      Params:         0       0       0       0       0       0       0       0
  2377 ;;      Locals:         0       0       0       0       0       0       0       0
  2378 ;;      Temps:          0       0       0       0       0       0       0       0
  2379 ;;      Totals:         0       0       0       0       0       0       0       0
  2380 ;;Total ram usage:        0 bytes
  2381 ;; Hardware stack levels required when called: 8
  2382 ;; This function calls:
  2383 ;;		_SYSTEM_Initialize
  2384 ;;		_sofaware_initialize
  2385 ;;		_tundra_main
  2386 ;; This function is called by:
  2387 ;;		Startup code after reset
  2388 ;; This function uses a non-reentrant model
  2389 ;;
  2390                           
  2391     0309                     _main:	
  2392                           ;psect for function _main
  2393                           
  2394     0309                     l2324:	
  2395                           ;incstack = 0
  2396                           ; Regs used in _main: [wreg-fsr0h+status,2+status,0+pclath+cstack]
  2397                           
  2398                           
  2399                           ;main.c: 58:   SYSTEM_Initialize();
  2400     0309  3182  2281  3183   	fcall	_SYSTEM_Initialize
  2401                           
  2402                           ;main.c: 59:   sofaware_initialize();
  2403     030C  3183  2331  3183   	fcall	_sofaware_initialize
  2404     030F                     l2326:
  2405                           
  2406                           ;main.c: 64:   (INTCONbits.GIE = 1);
  2407     030F  178B               	bsf	11,7	;volatile
  2408     0310                     l2328:
  2409                           
  2410                           ;main.c: 67:   (INTCONbits.PEIE = 1);
  2411     0310  170B               	bsf	11,6	;volatile
  2412     0311                     l2330:
  2413                           
  2414                           ;main.c: 71:     tundra_main();
  2415     0311  3182  2213  3183   	fcall	_tundra_main
  2416     0314  2B11               	goto	l2330
  2417     0315  3180  2826         	ljmp	start
  2418     0317                     __end_of_main:
  2419                           
  2420                           	psect	text1
  2421     0213                     __ptext1:	
  2422 ;; *************** function _tundra_main *****************
  2423 ;; Defined at:
  2424 ;;		line 510 in file "tundra.c"
  2425 ;; Parameters:    Size  Location     Type
  2426 ;;		None
  2427 ;; Auto vars:     Size  Location     Type
  2428 ;;		None
  2429 ;; Return value:  Size  Location     Type
  2430 ;;                  1    wreg      void 
  2431 ;; Registers used:
  2432 ;;		wreg, fsr0l, fsr0h, status,2, status,0, pclath, cstack
  2433 ;; Tracked objects:
  2434 ;;		On entry : 0/0
  2435 ;;		On exit  : 0/0
  2436 ;;		Unchanged: 0/0
  2437 ;; Data sizes:     COMMON   BANK0   BANK1   BANK2   BANK3   BANK4   BANK5   BANK6
  2438 ;;      Params:         0       0       0       0       0       0       0       0
  2439 ;;      Locals:         0       0       0       0       0       0       0       0
  2440 ;;      Temps:          0       2       0       0       0       0       0       0
  2441 ;;      Totals:         0       2       0       0       0       0       0       0
  2442 ;;Total ram usage:        2 bytes
  2443 ;; Hardware stack levels used: 1
  2444 ;; Hardware stack levels required when called: 6
  2445 ;; This function calls:
  2446 ;;		_LED_control
  2447 ;;		_analysis_of_data
  2448 ;;		_check_lamp_off_even
  2449 ;;		_check_unlock_even
  2450 ;;		_receiver_frame_data
  2451 ;;		_to_do_lamp_off
  2452 ;;		_to_do_signal_timeout
  2453 ;;		_to_do_unlock
  2454 ;; This function is called by:
  2455 ;;		_main
  2456 ;; This function uses a non-reentrant model
  2457 ;;
  2458                           
  2459     0213                     _tundra_main:	
  2460                           ;psect for function _tundra_main
  2461                           
  2462     0213                     l2302:	
  2463                           ;incstack = 0
  2464                           ; Regs used in _tundra_main: [wreg-fsr0h+status,2+status,0+pclath+cstack]
  2465                           
  2466                           
  2467                           ;tundra.c: 511:   receiver_frame_data();
  2468     0213  3180  20D0  3182   	fcall	_receiver_frame_data
  2469                           
  2470                           ;tundra.c: 512:   analysis_of_data();
  2471     0216  3181  213E  3182   	fcall	_analysis_of_data
  2472     0219                     l2304:
  2473                           
  2474                           ;tundra.c: 513:   check_unlock_even();
  2475     0219  3182  22B8  3182   	fcall	_check_unlock_even
  2476     021C                     l2306:
  2477                           
  2478                           ;tundra.c: 514:   check_lamp_off_even();
  2479     021C  3182  22C9  3182   	fcall	_check_lamp_off_even
  2480                           
  2481                           ;tundra.c: 516:   switch (eLamp_even) {
  2482     021F  2A32               	goto	l2318
  2483     0220                     l2308:
  2484                           
  2485                           ;tundra.c: 518:     LED_control();
  2486     0220  3181  2192  3182   	fcall	_LED_control
  2487                           
  2488                           ;tundra.c: 519:     break;
  2489     0223  2A4C               	goto	l484
  2490     0224                     l2310:
  2491                           
  2492                           ;tundra.c: 521:     to_do_signal_timeout();
  2493     0224  3183  2387  3182   	fcall	_to_do_signal_timeout
  2494                           
  2495                           ;tundra.c: 522:     break;
  2496     0227  2A4C               	goto	l484
  2497     0228                     l2312:
  2498                           
  2499                           ;tundra.c: 524:     to_do_unlock();
  2500     0228  3182  2294  3182   	fcall	_to_do_unlock
  2501                           
  2502                           ;tundra.c: 525:     break;
  2503     022B  2A4C               	goto	l484
  2504     022C                     l2314:
  2505                           
  2506                           ;tundra.c: 527:     to_do_lamp_off();
  2507     022C  3182  22A6  3182   	fcall	_to_do_lamp_off
  2508                           
  2509                           ;tundra.c: 528:     break;
  2510     022F  2A4C               	goto	l484
  2511     0230                     l482:	
  2512                           ;tundra.c: 529:   case eEVEN_SIGNAL_NOTHING:
  2513                           
  2514                           
  2515                           ;tundra.c: 530:     __nop();
  2516     0230  0000               	nop
  2517                           
  2518                           ;tundra.c: 531:     break;
  2519     0231  2A4C               	goto	l484
  2520     0232                     l2318:
  2521     0232  0020               	movlb	0	; select bank0
  2522     0233  083B               	movf	_eLamp_even,w
  2523     0234  00C5               	movwf	??_tundra_main
  2524     0235  01C6               	clrf	??_tundra_main+1
  2525                           
  2526                           ; Switch on 2 bytes has been partitioned into a top level switch of size 1, and 1 sub-sw
      +                          itches
  2527                           ; Switch size 1, requested type "simple"
  2528                           ; Number of cases is 1, Range of values is 0 to 0
  2529                           ; switch strategies available:
  2530                           ; Name         Instructions Cycles
  2531                           ; simple_byte            4     3 (average)
  2532                           ; direct_byte            8     6 (fixed)
  2533                           ; jumptable            260     6 (fixed)
  2534                           ;	Chosen strategy is simple_byte
  2535     0236  0846               	movf	??_tundra_main+1,w
  2536     0237  3A00               	xorlw	0	; case 0
  2537     0238  1903               	skipnz
  2538     0239  2A3B               	goto	l2382
  2539     023A  2A30               	goto	l482
  2540     023B                     l2382:
  2541                           
  2542                           ; Switch size 1, requested type "simple"
  2543                           ; Number of cases is 5, Range of values is 0 to 4
  2544                           ; switch strategies available:
  2545                           ; Name         Instructions Cycles
  2546                           ; direct_byte           16     6 (fixed)
  2547                           ; simple_byte           16     9 (average)
  2548                           ; jumptable            260     6 (fixed)
  2549                           ;	Chosen strategy is simple_byte
  2550     023B  0845               	movf	??_tundra_main,w
  2551     023C  3A00               	xorlw	0	; case 0
  2552     023D  1903               	skipnz
  2553     023E  2A30               	goto	l482
  2554     023F  3A01               	xorlw	1	; case 1
  2555     0240  1903               	skipnz
  2556     0241  2A20               	goto	l2308
  2557     0242  3A03               	xorlw	3	; case 2
  2558     0243  1903               	skipnz
  2559     0244  2A24               	goto	l2310
  2560     0245  3A01               	xorlw	1	; case 3
  2561     0246  1903               	skipnz
  2562     0247  2A28               	goto	l2312
  2563     0248  3A07               	xorlw	7	; case 4
  2564     0249  1903               	skipnz
  2565     024A  2A2C               	goto	l2314
  2566     024B  2A30               	goto	l482
  2567     024C                     l484:
  2568     024C  0008               	return
  2569     024D                     __end_of_tundra_main:
  2570                           
  2571                           	psect	text2
  2572     0294                     __ptext2:	
  2573 ;; *************** function _to_do_unlock *****************
  2574 ;; Defined at:
  2575 ;;		line 249 in file "tundra.c"
  2576 ;; Parameters:    Size  Location     Type
  2577 ;;		None
  2578 ;; Auto vars:     Size  Location     Type
  2579 ;;		None
  2580 ;; Return value:  Size  Location     Type
  2581 ;;                  1    wreg      void 
  2582 ;; Registers used:
  2583 ;;		status,2, status,0, pclath, cstack
  2584 ;; Tracked objects:
  2585 ;;		On entry : 0/0
  2586 ;;		On exit  : 0/0
  2587 ;;		Unchanged: 0/0
  2588 ;; Data sizes:     COMMON   BANK0   BANK1   BANK2   BANK3   BANK4   BANK5   BANK6
  2589 ;;      Params:         0       0       0       0       0       0       0       0
  2590 ;;      Locals:         0       0       0       0       0       0       0       0
  2591 ;;      Temps:          0       0       0       0       0       0       0       0
  2592 ;;      Totals:         0       0       0       0       0       0       0       0
  2593 ;;Total ram usage:        0 bytes
  2594 ;; Hardware stack levels used: 1
  2595 ;; Hardware stack levels required when called: 5
  2596 ;; This function calls:
  2597 ;;		_DRL_OFF
  2598 ;;		_FAN_OFF
  2599 ;;		_HIBEAM_OFF
  2600 ;;		_LOBEAM_OFF
  2601 ;;		_POS_ON
  2602 ;; This function is called by:
  2603 ;;		_tundra_main
  2604 ;; This function uses a non-reentrant model
  2605 ;;
  2606                           
  2607     0294                     _to_do_unlock:	
  2608                           ;psect for function _to_do_unlock
  2609                           
  2610     0294                     l2262:	
  2611                           ;incstack = 0
  2612                           ; Regs used in _to_do_unlock: [status,2+status,0+pclath+cstack]
  2613                           
  2614                           
  2615                           ;tundra.c: 251:   POS_ON();
  2616     0294  3183  238A  3182   	fcall	_POS_ON
  2617                           
  2618                           ;tundra.c: 252:   DRL_OFF();
  2619     0297  3183  23A5  3182   	fcall	_DRL_OFF
  2620                           
  2621                           ;tundra.c: 253:   LOBEAM_OFF();
  2622     029A  3183  2393  3182   	fcall	_LOBEAM_OFF
  2623                           
  2624                           ;tundra.c: 254:   HIBEAM_OFF();
  2625     029D  3183  2399  3182   	fcall	_HIBEAM_OFF
  2626                           
  2627                           ;tundra.c: 255:   FAN_OFF();
  2628     02A0  3183  239F  3182   	fcall	_FAN_OFF
  2629     02A3                     l2264:
  2630                           
  2631                           ;tundra.c: 256:   eLamp_even = eEVEN_SIGNAL_NOTHING;
  2632     02A3  0020               	movlb	0	; select bank0
  2633     02A4  01BB               	clrf	_eLamp_even
  2634     02A5                     l390:
  2635     02A5  0008               	return
  2636     02A6                     __end_of_to_do_unlock:
  2637                           
  2638                           	psect	text3
  2639     0387                     __ptext3:	
  2640 ;; *************** function _to_do_signal_timeout *****************
  2641 ;; Defined at:
  2642 ;;		line 240 in file "tundra.c"
  2643 ;; Parameters:    Size  Location     Type
  2644 ;;		None
  2645 ;; Auto vars:     Size  Location     Type
  2646 ;;		None
  2647 ;; Return value:  Size  Location     Type
  2648 ;;                  1    wreg      void 
  2649 ;; Registers used:
  2650 ;;		status,2
  2651 ;; Tracked objects:
  2652 ;;		On entry : 0/0
  2653 ;;		On exit  : 0/0
  2654 ;;		Unchanged: 0/0
  2655 ;; Data sizes:     COMMON   BANK0   BANK1   BANK2   BANK3   BANK4   BANK5   BANK6
  2656 ;;      Params:         0       0       0       0       0       0       0       0
  2657 ;;      Locals:         0       0       0       0       0       0       0       0
  2658 ;;      Temps:          0       0       0       0       0       0       0       0
  2659 ;;      Totals:         0       0       0       0       0       0       0       0
  2660 ;;Total ram usage:        0 bytes
  2661 ;; Hardware stack levels used: 1
  2662 ;; Hardware stack levels required when called: 4
  2663 ;; This function calls:
  2664 ;;		Nothing
  2665 ;; This function is called by:
  2666 ;;		_tundra_main
  2667 ;; This function uses a non-reentrant model
  2668 ;;
  2669                           
  2670     0387                     _to_do_signal_timeout:	
  2671                           ;psect for function _to_do_signal_timeout
  2672                           
  2673     0387                     l2260:	
  2674                           ;incstack = 0
  2675                           ; Regs used in _to_do_signal_timeout: [status,2]
  2676                           
  2677                           
  2678                           ;tundra.c: 245:   eLamp_even = eEVEN_SIGNAL_NOTHING;
  2679     0387  0020               	movlb	0	; select bank0
  2680     0388  01BB               	clrf	_eLamp_even
  2681     0389                     l387:
  2682     0389  0008               	return
  2683     038A                     __end_of_to_do_signal_timeout:
  2684                           
  2685                           	psect	text4
  2686     02A6                     __ptext4:	
  2687 ;; *************** function _to_do_lamp_off *****************
  2688 ;; Defined at:
  2689 ;;		line 260 in file "tundra.c"
  2690 ;; Parameters:    Size  Location     Type
  2691 ;;		None
  2692 ;; Auto vars:     Size  Location     Type
  2693 ;;		None
  2694 ;; Return value:  Size  Location     Type
  2695 ;;                  1    wreg      void 
  2696 ;; Registers used:
  2697 ;;		status,2, status,0, pclath, cstack
  2698 ;; Tracked objects:
  2699 ;;		On entry : 0/0
  2700 ;;		On exit  : 0/0
  2701 ;;		Unchanged: 0/0
  2702 ;; Data sizes:     COMMON   BANK0   BANK1   BANK2   BANK3   BANK4   BANK5   BANK6
  2703 ;;      Params:         0       0       0       0       0       0       0       0
  2704 ;;      Locals:         0       0       0       0       0       0       0       0
  2705 ;;      Temps:          0       0       0       0       0       0       0       0
  2706 ;;      Totals:         0       0       0       0       0       0       0       0
  2707 ;;Total ram usage:        0 bytes
  2708 ;; Hardware stack levels used: 1
  2709 ;; Hardware stack levels required when called: 5
  2710 ;; This function calls:
  2711 ;;		_DRL_OFF
  2712 ;;		_FAN_OFF
  2713 ;;		_HIBEAM_OFF
  2714 ;;		_LOBEAM_OFF
  2715 ;;		_POS_OFF
  2716 ;; This function is called by:
  2717 ;;		_tundra_main
  2718 ;; This function uses a non-reentrant model
  2719 ;;
  2720                           
  2721     02A6                     _to_do_lamp_off:	
  2722                           ;psect for function _to_do_lamp_off
  2723                           
  2724     02A6                     l2266:	
  2725                           ;incstack = 0
  2726                           ; Regs used in _to_do_lamp_off: [status,2+status,0+pclath+cstack]
  2727                           
  2728                           
  2729                           ;tundra.c: 262:   POS_OFF();
  2730     02A6  3183  238D  3182   	fcall	_POS_OFF
  2731                           
  2732                           ;tundra.c: 263:   DRL_OFF();
  2733     02A9  3183  23A5  3182   	fcall	_DRL_OFF
  2734                           
  2735                           ;tundra.c: 264:   LOBEAM_OFF();
  2736     02AC  3183  2393  3182   	fcall	_LOBEAM_OFF
  2737                           
  2738                           ;tundra.c: 265:   HIBEAM_OFF();
  2739     02AF  3183  2399  3182   	fcall	_HIBEAM_OFF
  2740                           
  2741                           ;tundra.c: 266:   FAN_OFF();
  2742     02B2  3183  239F  3182   	fcall	_FAN_OFF
  2743     02B5                     l2268:
  2744                           
  2745                           ;tundra.c: 267:   eLamp_even = eEVEN_SIGNAL_NOTHING;
  2746     02B5  0020               	movlb	0	; select bank0
  2747     02B6  01BB               	clrf	_eLamp_even
  2748     02B7                     l393:
  2749     02B7  0008               	return
  2750     02B8                     __end_of_to_do_lamp_off:
  2751                           
  2752                           	psect	text5
  2753     00D0                     __ptext5:	
  2754 ;; *************** function _receiver_frame_data *****************
  2755 ;; Defined at:
  2756 ;;		line 329 in file "tundra.c"
  2757 ;; Parameters:    Size  Location     Type
  2758 ;;		None
  2759 ;; Auto vars:     Size  Location     Type
  2760 ;;		None
  2761 ;; Return value:  Size  Location     Type
  2762 ;;                  1    wreg      void 
  2763 ;; Registers used:
  2764 ;;		wreg, fsr0l, fsr0h, status,2, status,0
  2765 ;; Tracked objects:
  2766 ;;		On entry : 0/0
  2767 ;;		On exit  : 0/0
  2768 ;;		Unchanged: 0/0
  2769 ;; Data sizes:     COMMON   BANK0   BANK1   BANK2   BANK3   BANK4   BANK5   BANK6
  2770 ;;      Params:         0       0       0       0       0       0       0       0
  2771 ;;      Locals:         0       0       0       0       0       0       0       0
  2772 ;;      Temps:          0       2       0       0       0       0       0       0
  2773 ;;      Totals:         0       2       0       0       0       0       0       0
  2774 ;;Total ram usage:        2 bytes
  2775 ;; Hardware stack levels used: 1
  2776 ;; Hardware stack levels required when called: 4
  2777 ;; This function calls:
  2778 ;;		Nothing
  2779 ;; This function is called by:
  2780 ;;		_tundra_main
  2781 ;; This function uses a non-reentrant model
  2782 ;;
  2783                           
  2784     00D0                     _receiver_frame_data:	
  2785                           ;psect for function _receiver_frame_data
  2786                           
  2787     00D0                     l1856:	
  2788                           ;incstack = 0
  2789                           ; Regs used in _receiver_frame_data: [wreg-fsr0h+status,2+status,0]
  2790                           
  2791                           
  2792                           ;tundra.c: 330:   static eRECEIVE_STATE eReceiver_step = eRECEIVE_PID;;tundra.c: 332:   
      +                          if (!fReceiver_Byte) {
  2793     00D0  0020               	movlb	0	; select bank0
  2794     00D1  083F               	movf	_fReceiver_Byte,w	;volatile
  2795     00D2  1D03               	btfss	3,2
  2796     00D3  28D5               	goto	u751
  2797     00D4  28D6               	goto	u750
  2798     00D5                     u751:
  2799     00D5  28D7               	goto	l1860
  2800     00D6                     u750:
  2801     00D6  293D               	goto	l410
  2802     00D7                     l1860:
  2803                           
  2804                           ;tundra.c: 335:   fReceiver_Byte = 0;
  2805     00D7  01BF               	clrf	_fReceiver_Byte	;volatile
  2806                           
  2807                           ;tundra.c: 337:   switch (eReceiver_step) {
  2808     00D8  2912               	goto	l1916
  2809     00D9                     l1862:
  2810     00D9  30C8               	movlw	200
  2811     00DA  0675               	xorwf	_rx_data,w
  2812     00DB  1D03               	btfss	3,2
  2813     00DC  28DE               	goto	u761
  2814     00DD  28DF               	goto	u760
  2815     00DE                     u761:
  2816     00DE  293D               	goto	l410
  2817     00DF                     u760:
  2818     00DF                     l1864:
  2819                           
  2820                           ;tundra.c: 340:       eReceiver_step++;
  2821     00DF  3001               	movlw	1
  2822     00E0  00C3               	movwf	??_receiver_frame_data
  2823     00E1  0843               	movf	??_receiver_frame_data,w
  2824     00E2  07BA               	addwf	receiver_frame_data@eReceiver_step,f
  2825     00E3                     l1866:
  2826                           
  2827                           ;tundra.c: 341:       rx_buf[0] = rx_data;
  2828     00E3  0875               	movf	_rx_data,w
  2829     00E4  00A0               	movwf	_rx_buf
  2830     00E5  293D               	goto	l410
  2831     00E6                     l1868:
  2832     00E6  308B               	movlw	139
  2833     00E7  0675               	xorwf	_rx_data,w
  2834     00E8  1D03               	btfss	3,2
  2835     00E9  28EB               	goto	u771
  2836     00EA  28EC               	goto	u770
  2837     00EB                     u771:
  2838     00EB  28F3               	goto	l1874
  2839     00EC                     u770:
  2840     00EC                     l1870:
  2841                           
  2842                           ;tundra.c: 346:       rx_buf[1] = rx_data;
  2843     00EC  0875               	movf	_rx_data,w
  2844     00ED  00A1               	movwf	_rx_buf+1
  2845     00EE                     l1872:
  2846                           
  2847                           ;tundra.c: 347:       eReceiver_step++;
  2848     00EE  3001               	movlw	1
  2849     00EF  00C3               	movwf	??_receiver_frame_data
  2850     00F0  0843               	movf	??_receiver_frame_data,w
  2851     00F1  07BA               	addwf	receiver_frame_data@eReceiver_step,f
  2852                           
  2853                           ;tundra.c: 348:     } else {
  2854     00F2  293D               	goto	l410
  2855     00F3                     l1874:
  2856                           
  2857                           ;tundra.c: 349:       eReceiver_step = eRECEIVE_PID;
  2858     00F3  01BA               	clrf	receiver_frame_data@eReceiver_step
  2859     00F4  293D               	goto	l410
  2860     00F5                     l1876:
  2861                           
  2862                           ;tundra.c: 353:     rx_buf[2] = rx_data;
  2863     00F5  0875               	movf	_rx_data,w
  2864     00F6  00A2               	movwf	_rx_buf+2
  2865     00F7  28EE               	goto	l1872
  2866     00F8                     l1880:
  2867                           
  2868                           ;tundra.c: 357:     rx_buf[3] = rx_data;
  2869     00F8  0875               	movf	_rx_data,w
  2870     00F9  00A3               	movwf	_rx_buf+3
  2871     00FA  28EE               	goto	l1872
  2872     00FB                     l1884:
  2873                           
  2874                           ;tundra.c: 361:     rx_buf[4] = rx_data;
  2875     00FB  0875               	movf	_rx_data,w
  2876     00FC  00A4               	movwf	_rx_buf+4
  2877     00FD  28EE               	goto	l1872
  2878     00FE                     l1888:
  2879                           
  2880                           ;tundra.c: 365:     rx_buf[5] = rx_data;
  2881     00FE  0875               	movf	_rx_data,w
  2882     00FF  00A5               	movwf	_rx_buf+5
  2883     0100  28EE               	goto	l1872
  2884     0101                     l1892:
  2885                           
  2886                           ;tundra.c: 369:     rx_buf[6] = rx_data;
  2887     0101  0875               	movf	_rx_data,w
  2888     0102  00A6               	movwf	_rx_buf+6
  2889     0103  28EE               	goto	l1872
  2890     0104                     l1896:
  2891                           
  2892                           ;tundra.c: 373:     rx_buf[7] = rx_data;
  2893     0104  0875               	movf	_rx_data,w
  2894     0105  00A7               	movwf	_rx_buf+7
  2895     0106  28EE               	goto	l1872
  2896     0107                     l1900:
  2897                           
  2898                           ;tundra.c: 377:     rx_buf[8] = rx_data;
  2899     0107  0875               	movf	_rx_data,w
  2900     0108  00A8               	movwf	_rx_buf+8
  2901     0109  28EE               	goto	l1872
  2902     010A                     l1904:
  2903                           
  2904                           ;tundra.c: 381:     rx_buf[9] = rx_data;
  2905     010A  0875               	movf	_rx_data,w
  2906     010B  00A9               	movwf	_rx_buf+9
  2907     010C  28EE               	goto	l1872
  2908     010D                     l1908:
  2909                           
  2910                           ;tundra.c: 385:     rx_buf[10] = rx_data;
  2911     010D  0875               	movf	_rx_data,w
  2912     010E  00AA               	movwf	_rx_buf+10
  2913                           
  2914                           ;tundra.c: 386:     fFrame_OK = 1;
  2915     010F  3001               	movlw	1
  2916     0110  00BE               	movwf	_fFrame_OK	;volatile
  2917     0111  28F3               	goto	l1874
  2918     0112                     l1916:
  2919     0112  083A               	movf	receiver_frame_data@eReceiver_step,w
  2920     0113  00C3               	movwf	??_receiver_frame_data
  2921     0114  01C4               	clrf	??_receiver_frame_data+1
  2922                           
  2923                           ; Switch on 2 bytes has been partitioned into a top level switch of size 1, and 1 sub-sw
      +                          itches
  2924                           ; Switch size 1, requested type "simple"
  2925                           ; Number of cases is 1, Range of values is 0 to 0
  2926                           ; switch strategies available:
  2927                           ; Name         Instructions Cycles
  2928                           ; simple_byte            4     3 (average)
  2929                           ; direct_byte            8     6 (fixed)
  2930                           ; jumptable            260     6 (fixed)
  2931                           ;	Chosen strategy is simple_byte
  2932     0115  0844               	movf	??_receiver_frame_data+1,w
  2933     0116  3A00               	xorlw	0	; case 0
  2934     0117  1903               	skipnz
  2935     0118  291A               	goto	l2384
  2936     0119  28F3               	goto	l1874
  2937     011A                     l2384:
  2938                           
  2939                           ; Switch size 1, requested type "simple"
  2940                           ; Number of cases is 11, Range of values is 0 to 10
  2941                           ; switch strategies available:
  2942                           ; Name         Instructions Cycles
  2943                           ; direct_byte           28     6 (fixed)
  2944                           ; simple_byte           34    18 (average)
  2945                           ; jumptable            260     6 (fixed)
  2946                           ;	Chosen strategy is simple_byte
  2947     011A  0843               	movf	??_receiver_frame_data,w
  2948     011B  3A00               	xorlw	0	; case 0
  2949     011C  1903               	skipnz
  2950     011D  28D9               	goto	l1862
  2951     011E  3A01               	xorlw	1	; case 1
  2952     011F  1903               	skipnz
  2953     0120  28E6               	goto	l1868
  2954     0121  3A03               	xorlw	3	; case 2
  2955     0122  1903               	skipnz
  2956     0123  28F5               	goto	l1876
  2957     0124  3A01               	xorlw	1	; case 3
  2958     0125  1903               	skipnz
  2959     0126  28F8               	goto	l1880
  2960     0127  3A07               	xorlw	7	; case 4
  2961     0128  1903               	skipnz
  2962     0129  28FB               	goto	l1884
  2963     012A  3A01               	xorlw	1	; case 5
  2964     012B  1903               	skipnz
  2965     012C  28FE               	goto	l1888
  2966     012D  3A03               	xorlw	3	; case 6
  2967     012E  1903               	skipnz
  2968     012F  2901               	goto	l1892
  2969     0130  3A01               	xorlw	1	; case 7
  2970     0131  1903               	skipnz
  2971     0132  2904               	goto	l1896
  2972     0133  3A0F               	xorlw	15	; case 8
  2973     0134  1903               	skipnz
  2974     0135  2907               	goto	l1900
  2975     0136  3A01               	xorlw	1	; case 9
  2976     0137  1903               	skipnz
  2977     0138  290A               	goto	l1904
  2978     0139  3A03               	xorlw	3	; case 10
  2979     013A  1903               	skipnz
  2980     013B  290D               	goto	l1908
  2981     013C  28F3               	goto	l1874
  2982     013D                     l410:
  2983     013D  0008               	return
  2984     013E                     __end_of_receiver_frame_data:
  2985                           
  2986                           	psect	text6
  2987     02B8                     __ptext6:	
  2988 ;; *************** function _check_unlock_even *****************
  2989 ;; Defined at:
  2990 ;;		line 224 in file "tundra.c"
  2991 ;; Parameters:    Size  Location     Type
  2992 ;;		None
  2993 ;; Auto vars:     Size  Location     Type
  2994 ;;		None
  2995 ;; Return value:  Size  Location     Type
  2996 ;;                  1    wreg      void 
  2997 ;; Registers used:
  2998 ;;		wreg, status,2, status,0
  2999 ;; Tracked objects:
  3000 ;;		On entry : 0/0
  3001 ;;		On exit  : 0/0
  3002 ;;		Unchanged: 0/0
  3003 ;; Data sizes:     COMMON   BANK0   BANK1   BANK2   BANK3   BANK4   BANK5   BANK6
  3004 ;;      Params:         0       0       0       0       0       0       0       0
  3005 ;;      Locals:         0       0       0       0       0       0       0       0
  3006 ;;      Temps:          0       0       0       0       0       0       0       0
  3007 ;;      Totals:         0       0       0       0       0       0       0       0
  3008 ;;Total ram usage:        0 bytes
  3009 ;; Hardware stack levels used: 1
  3010 ;; Hardware stack levels required when called: 4
  3011 ;; This function calls:
  3012 ;;		Nothing
  3013 ;; This function is called by:
  3014 ;;		_tundra_main
  3015 ;; This function uses a non-reentrant model
  3016 ;;
  3017                           
  3018     02B8                     _check_unlock_even:	
  3019                           ;psect for function _check_unlock_even
  3020                           
  3021     02B8                     l2244:	
  3022                           ;incstack = 0
  3023                           ; Regs used in _check_unlock_even: [wreg+status,2+status,0]
  3024                           
  3025                           
  3026                           ;tundra.c: 225:   if ((rx_buf[2] == 6) && (rx_buf[10] == 0xD5)) {
  3027     02B8  3006               	movlw	6
  3028     02B9  0020               	movlb	0	; select bank0
  3029     02BA  0622               	xorwf	_rx_buf+2,w
  3030     02BB  1D03               	btfss	3,2
  3031     02BC  2ABE               	goto	u961
  3032     02BD  2ABF               	goto	u960
  3033     02BE                     u961:
  3034     02BE  2AC8               	goto	l380
  3035     02BF                     u960:
  3036     02BF                     l2246:
  3037     02BF  30D5               	movlw	213
  3038     02C0  062A               	xorwf	_rx_buf+10,w
  3039     02C1  1D03               	btfss	3,2
  3040     02C2  2AC4               	goto	u971
  3041     02C3  2AC5               	goto	u970
  3042     02C4                     u971:
  3043     02C4  2AC8               	goto	l380
  3044     02C5                     u970:
  3045     02C5                     l2248:
  3046                           
  3047                           ;tundra.c: 226:     eLamp_even = eEVEN_SIGNAL_UNLOCK;
  3048     02C5  3003               	movlw	3
  3049     02C6  00BB               	movwf	_eLamp_even
  3050     02C7                     l2250:
  3051                           
  3052                           ;tundra.c: 227:     Communication_timer = 0;
  3053     02C7  01BD               	clrf	_Communication_timer	;volatile
  3054     02C8                     l380:
  3055     02C8  0008               	return
  3056     02C9                     __end_of_check_unlock_even:
  3057                           
  3058                           	psect	text7
  3059     02C9                     __ptext7:	
  3060 ;; *************** function _check_lamp_off_even *****************
  3061 ;; Defined at:
  3062 ;;		line 232 in file "tundra.c"
  3063 ;; Parameters:    Size  Location     Type
  3064 ;;		None
  3065 ;; Auto vars:     Size  Location     Type
  3066 ;;		None
  3067 ;; Return value:  Size  Location     Type
  3068 ;;                  1    wreg      void 
  3069 ;; Registers used:
  3070 ;;		wreg, status,2, status,0
  3071 ;; Tracked objects:
  3072 ;;		On entry : 0/0
  3073 ;;		On exit  : 0/0
  3074 ;;		Unchanged: 0/0
  3075 ;; Data sizes:     COMMON   BANK0   BANK1   BANK2   BANK3   BANK4   BANK5   BANK6
  3076 ;;      Params:         0       0       0       0       0       0       0       0
  3077 ;;      Locals:         0       0       0       0       0       0       0       0
  3078 ;;      Temps:          0       0       0       0       0       0       0       0
  3079 ;;      Totals:         0       0       0       0       0       0       0       0
  3080 ;;Total ram usage:        0 bytes
  3081 ;; Hardware stack levels used: 1
  3082 ;; Hardware stack levels required when called: 4
  3083 ;; This function calls:
  3084 ;;		Nothing
  3085 ;; This function is called by:
  3086 ;;		_tundra_main
  3087 ;; This function uses a non-reentrant model
  3088 ;;
  3089                           
  3090     02C9                     _check_lamp_off_even:	
  3091                           ;psect for function _check_lamp_off_even
  3092                           
  3093     02C9                     l2252:	
  3094                           ;incstack = 0
  3095                           ; Regs used in _check_lamp_off_even: [wreg+status,2+status,0]
  3096                           
  3097                           
  3098                           ;tundra.c: 233:   if ((rx_buf[2] == 2) && (rx_buf[10] == 0xB4)) {
  3099     02C9  3002               	movlw	2
  3100     02CA  0020               	movlb	0	; select bank0
  3101     02CB  0622               	xorwf	_rx_buf+2,w
  3102     02CC  1D03               	btfss	3,2
  3103     02CD  2ACF               	goto	u981
  3104     02CE  2AD0               	goto	u980
  3105     02CF                     u981:
  3106     02CF  2AD9               	goto	l384
  3107     02D0                     u980:
  3108     02D0                     l2254:
  3109     02D0  30B4               	movlw	180
  3110     02D1  062A               	xorwf	_rx_buf+10,w
  3111     02D2  1D03               	btfss	3,2
  3112     02D3  2AD5               	goto	u991
  3113     02D4  2AD6               	goto	u990
  3114     02D5                     u991:
  3115     02D5  2AD9               	goto	l384
  3116     02D6                     u990:
  3117     02D6                     l2256:
  3118                           
  3119                           ;tundra.c: 234:     eLamp_even = eEVEN_SIGNAL_CLEAR;
  3120     02D6  3004               	movlw	4
  3121     02D7  00BB               	movwf	_eLamp_even
  3122     02D8                     l2258:
  3123                           
  3124                           ;tundra.c: 235:     Communication_timer = 0;
  3125     02D8  01BD               	clrf	_Communication_timer	;volatile
  3126     02D9                     l384:
  3127     02D9  0008               	return
  3128     02DA                     __end_of_check_lamp_off_even:
  3129                           
  3130                           	psect	text8
  3131     013E                     __ptext8:	
  3132 ;; *************** function _analysis_of_data *****************
  3133 ;; Defined at:
  3134 ;;		line 149 in file "tundra.c"
  3135 ;; Parameters:    Size  Location     Type
  3136 ;;		None
  3137 ;; Auto vars:     Size  Location     Type
  3138 ;;  temp_index      1    1[BANK0 ] struct .
  3139 ;;  crc8            1    0[BANK0 ] unsigned char 
  3140 ;; Return value:  Size  Location     Type
  3141 ;;                  1    wreg      void 
  3142 ;; Registers used:
  3143 ;;		wreg, fsr0l, fsr0h, status,2, status,0, pclath
  3144 ;; Tracked objects:
  3145 ;;		On entry : 0/0
  3146 ;;		On exit  : 0/0
  3147 ;;		Unchanged: 0/0
  3148 ;; Data sizes:     COMMON   BANK0   BANK1   BANK2   BANK3   BANK4   BANK5   BANK6
  3149 ;;      Params:         0       0       0       0       0       0       0       0
  3150 ;;      Locals:         0       2       0       0       0       0       0       0
  3151 ;;      Temps:          0       0       0       0       0       0       0       0
  3152 ;;      Totals:         0       2       0       0       0       0       0       0
  3153 ;;Total ram usage:        2 bytes
  3154 ;; Hardware stack levels used: 1
  3155 ;; Hardware stack levels required when called: 4
  3156 ;; This function calls:
  3157 ;;		Nothing
  3158 ;; This function is called by:
  3159 ;;		_tundra_main
  3160 ;; This function uses a non-reentrant model
  3161 ;;
  3162                           
  3163     013E                     _analysis_of_data:	
  3164                           ;psect for function _analysis_of_data
  3165                           
  3166     013E                     l2192:	
  3167                           ;incstack = 0
  3168                           ; Regs used in _analysis_of_data: [wreg-fsr0h+status,2+status,0+pclath]
  3169                           
  3170                           
  3171                           ;tundra.c: 150:   D2.Byte = rx_buf[2];
  3172     013E  0020               	movlb	0	; select bank0
  3173     013F  0822               	movf	_rx_buf+2,w
  3174     0140  00C2               	movwf	_D2
  3175                           
  3176                           ;tundra.c: 151:   D3.Byte = rx_buf[3];
  3177     0141  0823               	movf	_rx_buf+3,w
  3178     0142  00C1               	movwf	_D3
  3179     0143                     l2194:
  3180                           
  3181                           ;tundra.c: 152:   sflag_CS_index temp_index;;tundra.c: 153:   temp_index.Byte = 0;
  3182     0143  01C4               	clrf	analysis_of_data@temp_index
  3183     0144                     l2196:
  3184     0144                     l2198:
  3185                           
  3186                           ;tundra.c: 156:   if (!fFrame_OK) {
  3187     0144  083E               	movf	_fFrame_OK,w	;volatile
  3188     0145  1D03               	btfss	3,2
  3189     0146  2948               	goto	u861
  3190     0147  2949               	goto	u860
  3191     0148                     u861:
  3192     0148  294A               	goto	l2202
  3193     0149                     u860:
  3194     0149  2991               	goto	l367
  3195     014A                     l2202:
  3196                           
  3197                           ;tundra.c: 159:   fFrame_OK = 0;
  3198     014A  01BE               	clrf	_fFrame_OK	;volatile
  3199     014B                     l2204:
  3200                           
  3201                           ;tundra.c: 162:   if (D2.POS) {
  3202     014B  1D42               	btfss	_D2,2
  3203     014C  294E               	goto	u871
  3204     014D  294F               	goto	u870
  3205     014E                     u871:
  3206     014E  2950               	goto	l368
  3207     014F                     u870:
  3208     014F                     l2206:
  3209                           
  3210                           ;tundra.c: 163:     temp_index.POS = 1;
  3211     014F  16C4               	bsf	analysis_of_data@temp_index,5
  3212     0150                     l368:	
  3213                           ;tundra.c: 164:   }
  3214                           
  3215                           
  3216                           ;tundra.c: 167:   if (D2.DRL) {
  3217     0150  1DC2               	btfss	_D2,3
  3218     0151  2953               	goto	u881
  3219     0152  2954               	goto	u880
  3220     0153                     u881:
  3221     0153  2955               	goto	l369
  3222     0154                     u880:
  3223     0154                     l2208:
  3224                           
  3225                           ;tundra.c: 168:     temp_index.DRL = 1;
  3226     0154  1644               	bsf	analysis_of_data@temp_index,4
  3227     0155                     l369:	
  3228                           ;tundra.c: 169:   }
  3229                           
  3230                           
  3231                           ;tundra.c: 172:   if (D2.LoBeam) {
  3232     0155  1E42               	btfss	_D2,4
  3233     0156  2958               	goto	u891
  3234     0157  2959               	goto	u890
  3235     0158                     u891:
  3236     0158  295A               	goto	l370
  3237     0159                     u890:
  3238     0159                     l2210:
  3239                           
  3240                           ;tundra.c: 173:     temp_index.LoBeam = 1;
  3241     0159  15C4               	bsf	analysis_of_data@temp_index,3
  3242     015A                     l370:	
  3243                           ;tundra.c: 174:   }
  3244                           
  3245                           
  3246                           ;tundra.c: 177:   if (D2.HiBeam) {
  3247     015A  1EC2               	btfss	_D2,5
  3248     015B  295D               	goto	u901
  3249     015C  295E               	goto	u900
  3250     015D                     u901:
  3251     015D  295F               	goto	l371
  3252     015E                     u900:
  3253     015E                     l2212:
  3254                           
  3255                           ;tundra.c: 178:     temp_index.HiBeam = 1;
  3256     015E  1544               	bsf	analysis_of_data@temp_index,2
  3257     015F                     l371:	
  3258                           ;tundra.c: 179:   }
  3259                           
  3260                           
  3261                           ;tundra.c: 182:   if (D3.turnLight_L) {
  3262     015F  1EC1               	btfss	_D3,5
  3263     0160  2962               	goto	u911
  3264     0161  2963               	goto	u910
  3265     0162                     u911:
  3266     0162  2964               	goto	l372
  3267     0163                     u910:
  3268     0163                     l2214:
  3269                           
  3270                           ;tundra.c: 183:     temp_index.turnLight_L = 1;
  3271     0163  14C4               	bsf	analysis_of_data@temp_index,1
  3272     0164                     l372:	
  3273                           ;tundra.c: 184:   }
  3274                           
  3275                           
  3276                           ;tundra.c: 187:   if (D3.turnLight_R) {
  3277     0164  1F41               	btfss	_D3,6
  3278     0165  2967               	goto	u921
  3279     0166  2968               	goto	u920
  3280     0167                     u921:
  3281     0167  2969               	goto	l2218
  3282     0168                     u920:
  3283     0168                     l2216:
  3284                           
  3285                           ;tundra.c: 188:     temp_index.turnLight_R = 1;
  3286     0168  1444               	bsf	analysis_of_data@temp_index,0
  3287     0169                     l2218:
  3288                           
  3289                           ;tundra.c: 191:   crc8 = CS[temp_index.Byte];
  3290     0169  0844               	movf	analysis_of_data@temp_index,w
  3291     016A  3ED3               	addlw	low (_CS| (0+32768))
  3292     016B  0084               	movwf	4
  3293     016C  3081               	movlw	high (_CS| (0+32768))
  3294     016D  1803               	skipnc
  3295     016E  3E01               	addlw	1
  3296     016F  0085               	movwf	5
  3297     0170  0800               	movf	0,w	;code access
  3298     0171  00C3               	movwf	analysis_of_data@crc8
  3299     0172                     l2220:
  3300                           
  3301                           ;tundra.c: 193:   if (rx_buf[10] != crc8) {
  3302     0172  082A               	movf	_rx_buf+10,w
  3303     0173  0643               	xorwf	analysis_of_data@crc8,w
  3304     0174  1903               	skipnz
  3305     0175  2977               	goto	u931
  3306     0176  2978               	goto	u930
  3307     0177                     u931:
  3308     0177  297A               	goto	l2226
  3309     0178                     u930:
  3310     0178                     l2222:
  3311                           
  3312                           ;tundra.c: 195:     eLamp_even = eEVEN_SIGNAL_NOTHING;
  3313     0178  01BB               	clrf	_eLamp_even
  3314     0179  2991               	goto	l367
  3315     017A                     l2226:
  3316     017A  30C8               	movlw	200
  3317     017B  0620               	xorwf	_rx_buf,w
  3318     017C  1903               	btfsc	3,2
  3319     017D  297F               	goto	u941
  3320     017E  2980               	goto	u940
  3321     017F                     u941:
  3322     017F  2983               	goto	l2232
  3323     0180                     u940:
  3324     0180                     l2228:
  3325                           
  3326                           ;tundra.c: 201:     rx_buf[0] = 0;
  3327     0180  01A0               	clrf	_rx_buf
  3328                           
  3329                           ;tundra.c: 202:     eLamp_even = eEVEN_SIGNAL_NOTHING;
  3330     0181  01BB               	clrf	_eLamp_even
  3331     0182  2991               	goto	l367
  3332     0183                     l2232:
  3333     0183  308B               	movlw	139
  3334     0184  0621               	xorwf	_rx_buf+1,w
  3335     0185  1903               	btfsc	3,2
  3336     0186  2988               	goto	u951
  3337     0187  2989               	goto	u950
  3338     0188                     u951:
  3339     0188  298C               	goto	l2238
  3340     0189                     u950:
  3341     0189                     l2234:
  3342                           
  3343                           ;tundra.c: 208:     rx_buf[1] = 0;
  3344     0189  01A1               	clrf	_rx_buf+1
  3345                           
  3346                           ;tundra.c: 209:     eLamp_even = eEVEN_SIGNAL_NOTHING;
  3347     018A  01BB               	clrf	_eLamp_even
  3348     018B  2991               	goto	l367
  3349     018C                     l2238:
  3350                           
  3351                           ;tundra.c: 214:   csFlag.Byte = temp_index.Byte;
  3352     018C  0844               	movf	analysis_of_data@temp_index,w
  3353     018D  00C0               	movwf	_csFlag
  3354     018E                     l2240:
  3355                           
  3356                           ;tundra.c: 215:   Communication_timer = 0;
  3357     018E  01BD               	clrf	_Communication_timer	;volatile
  3358     018F                     l2242:
  3359                           
  3360                           ;tundra.c: 216:   eLamp_even = eEVEN_SIGNAL_OK;
  3361     018F  01BB               	clrf	_eLamp_even
  3362     0190  0ABB               	incf	_eLamp_even,f
  3363     0191                     l367:
  3364     0191  0008               	return
  3365     0192                     __end_of_analysis_of_data:
  3366                           
  3367                           	psect	text9
  3368     0192                     __ptext9:	
  3369 ;; *************** function _LED_control *****************
  3370 ;; Defined at:
  3371 ;;		line 271 in file "tundra.c"
  3372 ;; Parameters:    Size  Location     Type
  3373 ;;		None
  3374 ;; Auto vars:     Size  Location     Type
  3375 ;;		None
  3376 ;; Return value:  Size  Location     Type
  3377 ;;                  1    wreg      void 
  3378 ;; Registers used:
  3379 ;;		status,2, status,0, pclath, cstack
  3380 ;; Tracked objects:
  3381 ;;		On entry : 0/0
  3382 ;;		On exit  : 0/0
  3383 ;;		Unchanged: 0/0
  3384 ;; Data sizes:     COMMON   BANK0   BANK1   BANK2   BANK3   BANK4   BANK5   BANK6
  3385 ;;      Params:         0       0       0       0       0       0       0       0
  3386 ;;      Locals:         0       0       0       0       0       0       0       0
  3387 ;;      Temps:          0       0       0       0       0       0       0       0
  3388 ;;      Totals:         0       0       0       0       0       0       0       0
  3389 ;;Total ram usage:        0 bytes
  3390 ;; Hardware stack levels used: 1
  3391 ;; Hardware stack levels required when called: 5
  3392 ;; This function calls:
  3393 ;;		_DRL_OFF
  3394 ;;		_DRL_ON
  3395 ;;		_FAN_OFF
  3396 ;;		_FAN_ON
  3397 ;;		_HIBEAM_OFF
  3398 ;;		_HIBEAM_ON
  3399 ;;		_LOBEAM_OFF
  3400 ;;		_LOBEAM_ON
  3401 ;;		_POS_OFF
  3402 ;;		_POS_ON
  3403 ;; This function is called by:
  3404 ;;		_tundra_main
  3405 ;; This function uses a non-reentrant model
  3406 ;;
  3407                           
  3408     0192                     _LED_control:	
  3409                           ;psect for function _LED_control
  3410                           
  3411     0192                     l2270:	
  3412                           ;incstack = 0
  3413                           ; Regs used in _LED_control: [status,2+status,0+pclath+cstack]
  3414                           
  3415                           
  3416                           ;tundra.c: 273:   if (csFlag.POS == 1) {
  3417     0192  0020               	movlb	0	; select bank0
  3418     0193  1EC0               	btfss	_csFlag,5
  3419     0194  2996               	goto	u1001
  3420     0195  2997               	goto	u1000
  3421     0196                     u1001:
  3422     0196  299B               	goto	l2274
  3423     0197                     u1000:
  3424     0197                     l2272:
  3425                           
  3426                           ;tundra.c: 274:     POS_ON();
  3427     0197  3183  238A  3181   	fcall	_POS_ON
  3428                           
  3429                           ;tundra.c: 275:   } else {
  3430     019A  299E               	goto	l2276
  3431     019B                     l2274:
  3432                           
  3433                           ;tundra.c: 276:     POS_OFF();
  3434     019B  3183  238D  3181   	fcall	_POS_OFF
  3435     019E                     l2276:
  3436                           
  3437                           ;tundra.c: 287:   if (csFlag.HiBeam == 0) {
  3438     019E  0020               	movlb	0	; select bank0
  3439     019F  1940               	btfsc	_csFlag,2
  3440     01A0  29A2               	goto	u1011
  3441     01A1  29A3               	goto	u1010
  3442     01A2                     u1011:
  3443     01A2  29A6               	goto	l2280
  3444     01A3                     u1010:
  3445     01A3                     l2278:
  3446                           
  3447                           ;tundra.c: 288:     HIBEAM_OFF();
  3448     01A3  3183  2399  3181   	fcall	_HIBEAM_OFF
  3449     01A6                     l2280:
  3450                           
  3451                           ;tundra.c: 292:   if (csFlag.LoBeam == 1) {
  3452     01A6  0020               	movlb	0	; select bank0
  3453     01A7  1DC0               	btfss	_csFlag,3
  3454     01A8  29AA               	goto	u1021
  3455     01A9  29AB               	goto	u1020
  3456     01AA                     u1021:
  3457     01AA  29BD               	goto	l2288
  3458     01AB                     u1020:
  3459     01AB                     l2282:
  3460                           
  3461                           ;tundra.c: 293:     LOBEAM_ON();
  3462     01AB  3183  2390  3181   	fcall	_LOBEAM_ON
  3463                           
  3464                           ;tundra.c: 294:     FAN_ON();
  3465     01AE  3183  239C  3181   	fcall	_FAN_ON
  3466                           
  3467                           ;tundra.c: 295:     DRL_OFF();
  3468     01B1  3183  23A5  3181   	fcall	_DRL_OFF
  3469     01B4                     l2284:
  3470                           
  3471                           ;tundra.c: 297:     if (csFlag.HiBeam == 1) {
  3472     01B4  0020               	movlb	0	; select bank0
  3473     01B5  1D40               	btfss	_csFlag,2
  3474     01B6  29B8               	goto	u1031
  3475     01B7  29B9               	goto	u1030
  3476     01B8                     u1031:
  3477     01B8  29D2               	goto	l404
  3478     01B9                     u1030:
  3479     01B9                     l2286:
  3480                           
  3481                           ;tundra.c: 298:       HIBEAM_ON();
  3482     01B9  3183  2396  3181   	fcall	_HIBEAM_ON
  3483     01BC  29D2               	goto	l404
  3484     01BD                     l2288:
  3485                           
  3486                           ;tundra.c: 301:     LOBEAM_OFF();
  3487     01BD  3183  2393  3181   	fcall	_LOBEAM_OFF
  3488                           
  3489                           ;tundra.c: 302:     HIBEAM_OFF();
  3490     01C0  3183  2399  3181   	fcall	_HIBEAM_OFF
  3491                           
  3492                           ;tundra.c: 303:     FAN_OFF();
  3493     01C3  3183  239F  3181   	fcall	_FAN_OFF
  3494     01C6                     l2290:
  3495                           
  3496                           ;tundra.c: 305:     if (csFlag.DRL == 1) {
  3497     01C6  0020               	movlb	0	; select bank0
  3498     01C7  1E40               	btfss	_csFlag,4
  3499     01C8  29CA               	goto	u1041
  3500     01C9  29CB               	goto	u1040
  3501     01CA                     u1041:
  3502     01CA  29CF               	goto	l2294
  3503     01CB                     u1040:
  3504     01CB                     l2292:
  3505                           
  3506                           ;tundra.c: 306:       DRL_ON();
  3507     01CB  3183  23A2  3181   	fcall	_DRL_ON
  3508                           
  3509                           ;tundra.c: 307:     } else {
  3510     01CE  29D2               	goto	l404
  3511     01CF                     l2294:
  3512                           
  3513                           ;tundra.c: 308:       DRL_OFF();
  3514     01CF  3183  23A5  3181   	fcall	_DRL_OFF
  3515     01D2                     l404:
  3516     01D2  0008               	return
  3517     01D3                     __end_of_LED_control:
  3518                           
  3519                           	psect	text10
  3520     038A                     __ptext10:	
  3521 ;; *************** function _POS_ON *****************
  3522 ;; Defined at:
  3523 ;;		line 15 in file "LED_output.c"
  3524 ;; Parameters:    Size  Location     Type
  3525 ;;		None
  3526 ;; Auto vars:     Size  Location     Type
  3527 ;;		None
  3528 ;; Return value:  Size  Location     Type
  3529 ;;                  1    wreg      void 
  3530 ;; Registers used:
  3531 ;;		None
  3532 ;; Tracked objects:
  3533 ;;		On entry : 0/0
  3534 ;;		On exit  : 0/0
  3535 ;;		Unchanged: 0/0
  3536 ;; Data sizes:     COMMON   BANK0   BANK1   BANK2   BANK3   BANK4   BANK5   BANK6
  3537 ;;      Params:         0       0       0       0       0       0       0       0
  3538 ;;      Locals:         0       0       0       0       0       0       0       0
  3539 ;;      Temps:          0       0       0       0       0       0       0       0
  3540 ;;      Totals:         0       0       0       0       0       0       0       0
  3541 ;;Total ram usage:        0 bytes
  3542 ;; Hardware stack levels used: 1
  3543 ;; Hardware stack levels required when called: 4
  3544 ;; This function calls:
  3545 ;;		Nothing
  3546 ;; This function is called by:
  3547 ;;		_to_do_unlock
  3548 ;;		_LED_control
  3549 ;; This function uses a non-reentrant model
  3550 ;;
  3551                           
  3552     038A                     _POS_ON:	
  3553                           ;psect for function _POS_ON
  3554                           
  3555     038A                     l2082:	
  3556                           ;incstack = 0
  3557                           ; Regs used in _POS_ON: []
  3558                           
  3559     038A  0022               	movlb	2	; select bank2
  3560     038B  148C               	bsf	12,1	;volatile
  3561     038C                     l234:
  3562     038C  0008               	return
  3563     038D                     __end_of_POS_ON:
  3564                           
  3565                           	psect	text11
  3566     038D                     __ptext11:	
  3567 ;; *************** function _POS_OFF *****************
  3568 ;; Defined at:
  3569 ;;		line 17 in file "LED_output.c"
  3570 ;; Parameters:    Size  Location     Type
  3571 ;;		None
  3572 ;; Auto vars:     Size  Location     Type
  3573 ;;		None
  3574 ;; Return value:  Size  Location     Type
  3575 ;;                  1    wreg      void 
  3576 ;; Registers used:
  3577 ;;		None
  3578 ;; Tracked objects:
  3579 ;;		On entry : 0/0
  3580 ;;		On exit  : 0/0
  3581 ;;		Unchanged: 0/0
  3582 ;; Data sizes:     COMMON   BANK0   BANK1   BANK2   BANK3   BANK4   BANK5   BANK6
  3583 ;;      Params:         0       0       0       0       0       0       0       0
  3584 ;;      Locals:         0       0       0       0       0       0       0       0
  3585 ;;      Temps:          0       0       0       0       0       0       0       0
  3586 ;;      Totals:         0       0       0       0       0       0       0       0
  3587 ;;Total ram usage:        0 bytes
  3588 ;; Hardware stack levels used: 1
  3589 ;; Hardware stack levels required when called: 4
  3590 ;; This function calls:
  3591 ;;		Nothing
  3592 ;; This function is called by:
  3593 ;;		_to_do_lamp_off
  3594 ;;		_LED_control
  3595 ;; This function uses a non-reentrant model
  3596 ;;
  3597                           
  3598     038D                     _POS_OFF:	
  3599                           ;psect for function _POS_OFF
  3600                           
  3601     038D                     l2084:	
  3602                           ;incstack = 0
  3603                           ; Regs used in _POS_OFF: []
  3604                           
  3605     038D  0022               	movlb	2	; select bank2
  3606     038E  108C               	bcf	12,1	;volatile
  3607     038F                     l237:
  3608     038F  0008               	return
  3609     0390                     __end_of_POS_OFF:
  3610                           
  3611                           	psect	text12
  3612     0390                     __ptext12:	
  3613 ;; *************** function _LOBEAM_ON *****************
  3614 ;; Defined at:
  3615 ;;		line 23 in file "LED_output.c"
  3616 ;; Parameters:    Size  Location     Type
  3617 ;;		None
  3618 ;; Auto vars:     Size  Location     Type
  3619 ;;		None
  3620 ;; Return value:  Size  Location     Type
  3621 ;;                  1    wreg      void 
  3622 ;; Registers used:
  3623 ;;		None
  3624 ;; Tracked objects:
  3625 ;;		On entry : 0/0
  3626 ;;		On exit  : 0/0
  3627 ;;		Unchanged: 0/0
  3628 ;; Data sizes:     COMMON   BANK0   BANK1   BANK2   BANK3   BANK4   BANK5   BANK6
  3629 ;;      Params:         0       0       0       0       0       0       0       0
  3630 ;;      Locals:         0       0       0       0       0       0       0       0
  3631 ;;      Temps:          0       0       0       0       0       0       0       0
  3632 ;;      Totals:         0       0       0       0       0       0       0       0
  3633 ;;Total ram usage:        0 bytes
  3634 ;; Hardware stack levels used: 1
  3635 ;; Hardware stack levels required when called: 4
  3636 ;; This function calls:
  3637 ;;		Nothing
  3638 ;; This function is called by:
  3639 ;;		_LED_control
  3640 ;; This function uses a non-reentrant model
  3641 ;;
  3642                           
  3643     0390                     _LOBEAM_ON:	
  3644                           ;psect for function _LOBEAM_ON
  3645                           
  3646     0390                     l2090:	
  3647                           ;incstack = 0
  3648                           ; Regs used in _LOBEAM_ON: []
  3649                           
  3650     0390  0022               	movlb	2	; select bank2
  3651     0391  160D               	bsf	13,4	;volatile
  3652     0392                     l246:
  3653     0392  0008               	return
  3654     0393                     __end_of_LOBEAM_ON:
  3655                           
  3656                           	psect	text13
  3657     0393                     __ptext13:	
  3658 ;; *************** function _LOBEAM_OFF *****************
  3659 ;; Defined at:
  3660 ;;		line 25 in file "LED_output.c"
  3661 ;; Parameters:    Size  Location     Type
  3662 ;;		None
  3663 ;; Auto vars:     Size  Location     Type
  3664 ;;		None
  3665 ;; Return value:  Size  Location     Type
  3666 ;;                  1    wreg      void 
  3667 ;; Registers used:
  3668 ;;		None
  3669 ;; Tracked objects:
  3670 ;;		On entry : 0/0
  3671 ;;		On exit  : 0/0
  3672 ;;		Unchanged: 0/0
  3673 ;; Data sizes:     COMMON   BANK0   BANK1   BANK2   BANK3   BANK4   BANK5   BANK6
  3674 ;;      Params:         0       0       0       0       0       0       0       0
  3675 ;;      Locals:         0       0       0       0       0       0       0       0
  3676 ;;      Temps:          0       0       0       0       0       0       0       0
  3677 ;;      Totals:         0       0       0       0       0       0       0       0
  3678 ;;Total ram usage:        0 bytes
  3679 ;; Hardware stack levels used: 1
  3680 ;; Hardware stack levels required when called: 4
  3681 ;; This function calls:
  3682 ;;		Nothing
  3683 ;; This function is called by:
  3684 ;;		_to_do_unlock
  3685 ;;		_to_do_lamp_off
  3686 ;;		_LED_control
  3687 ;; This function uses a non-reentrant model
  3688 ;;
  3689                           
  3690     0393                     _LOBEAM_OFF:	
  3691                           ;psect for function _LOBEAM_OFF
  3692                           
  3693     0393                     l2092:	
  3694                           ;incstack = 0
  3695                           ; Regs used in _LOBEAM_OFF: []
  3696                           
  3697     0393  0022               	movlb	2	; select bank2
  3698     0394  120D               	bcf	13,4	;volatile
  3699     0395                     l249:
  3700     0395  0008               	return
  3701     0396                     __end_of_LOBEAM_OFF:
  3702                           
  3703                           	psect	text14
  3704     0396                     __ptext14:	
  3705 ;; *************** function _HIBEAM_ON *****************
  3706 ;; Defined at:
  3707 ;;		line 27 in file "LED_output.c"
  3708 ;; Parameters:    Size  Location     Type
  3709 ;;		None
  3710 ;; Auto vars:     Size  Location     Type
  3711 ;;		None
  3712 ;; Return value:  Size  Location     Type
  3713 ;;                  1    wreg      void 
  3714 ;; Registers used:
  3715 ;;		None
  3716 ;; Tracked objects:
  3717 ;;		On entry : 0/0
  3718 ;;		On exit  : 0/0
  3719 ;;		Unchanged: 0/0
  3720 ;; Data sizes:     COMMON   BANK0   BANK1   BANK2   BANK3   BANK4   BANK5   BANK6
  3721 ;;      Params:         0       0       0       0       0       0       0       0
  3722 ;;      Locals:         0       0       0       0       0       0       0       0
  3723 ;;      Temps:          0       0       0       0       0       0       0       0
  3724 ;;      Totals:         0       0       0       0       0       0       0       0
  3725 ;;Total ram usage:        0 bytes
  3726 ;; Hardware stack levels used: 1
  3727 ;; Hardware stack levels required when called: 4
  3728 ;; This function calls:
  3729 ;;		Nothing
  3730 ;; This function is called by:
  3731 ;;		_LED_control
  3732 ;; This function uses a non-reentrant model
  3733 ;;
  3734                           
  3735     0396                     _HIBEAM_ON:	
  3736                           ;psect for function _HIBEAM_ON
  3737                           
  3738     0396                     l2094:	
  3739                           ;incstack = 0
  3740                           ; Regs used in _HIBEAM_ON: []
  3741                           
  3742     0396  0022               	movlb	2	; select bank2
  3743     0397  158D               	bsf	13,3	;volatile
  3744     0398                     l252:
  3745     0398  0008               	return
  3746     0399                     __end_of_HIBEAM_ON:
  3747                           
  3748                           	psect	text15
  3749     0399                     __ptext15:	
  3750 ;; *************** function _HIBEAM_OFF *****************
  3751 ;; Defined at:
  3752 ;;		line 28 in file "LED_output.c"
  3753 ;; Parameters:    Size  Location     Type
  3754 ;;		None
  3755 ;; Auto vars:     Size  Location     Type
  3756 ;;		None
  3757 ;; Return value:  Size  Location     Type
  3758 ;;                  1    wreg      void 
  3759 ;; Registers used:
  3760 ;;		None
  3761 ;; Tracked objects:
  3762 ;;		On entry : 0/0
  3763 ;;		On exit  : 0/0
  3764 ;;		Unchanged: 0/0
  3765 ;; Data sizes:     COMMON   BANK0   BANK1   BANK2   BANK3   BANK4   BANK5   BANK6
  3766 ;;      Params:         0       0       0       0       0       0       0       0
  3767 ;;      Locals:         0       0       0       0       0       0       0       0
  3768 ;;      Temps:          0       0       0       0       0       0       0       0
  3769 ;;      Totals:         0       0       0       0       0       0       0       0
  3770 ;;Total ram usage:        0 bytes
  3771 ;; Hardware stack levels used: 1
  3772 ;; Hardware stack levels required when called: 4
  3773 ;; This function calls:
  3774 ;;		Nothing
  3775 ;; This function is called by:
  3776 ;;		_to_do_unlock
  3777 ;;		_to_do_lamp_off
  3778 ;;		_LED_control
  3779 ;; This function uses a non-reentrant model
  3780 ;;
  3781                           
  3782     0399                     _HIBEAM_OFF:	
  3783                           ;psect for function _HIBEAM_OFF
  3784                           
  3785     0399                     l2096:	
  3786                           ;incstack = 0
  3787                           ; Regs used in _HIBEAM_OFF: []
  3788                           
  3789     0399  0022               	movlb	2	; select bank2
  3790     039A  118D               	bcf	13,3	;volatile
  3791     039B                     l255:
  3792     039B  0008               	return
  3793     039C                     __end_of_HIBEAM_OFF:
  3794                           
  3795                           	psect	text16
  3796     039C                     __ptext16:	
  3797 ;; *************** function _FAN_ON *****************
  3798 ;; Defined at:
  3799 ;;		line 19 in file "LED_output.c"
  3800 ;; Parameters:    Size  Location     Type
  3801 ;;		None
  3802 ;; Auto vars:     Size  Location     Type
  3803 ;;		None
  3804 ;; Return value:  Size  Location     Type
  3805 ;;                  1    wreg      void 
  3806 ;; Registers used:
  3807 ;;		None
  3808 ;; Tracked objects:
  3809 ;;		On entry : 0/0
  3810 ;;		On exit  : 0/0
  3811 ;;		Unchanged: 0/0
  3812 ;; Data sizes:     COMMON   BANK0   BANK1   BANK2   BANK3   BANK4   BANK5   BANK6
  3813 ;;      Params:         0       0       0       0       0       0       0       0
  3814 ;;      Locals:         0       0       0       0       0       0       0       0
  3815 ;;      Temps:          0       0       0       0       0       0       0       0
  3816 ;;      Totals:         0       0       0       0       0       0       0       0
  3817 ;;Total ram usage:        0 bytes
  3818 ;; Hardware stack levels used: 1
  3819 ;; Hardware stack levels required when called: 4
  3820 ;; This function calls:
  3821 ;;		Nothing
  3822 ;; This function is called by:
  3823 ;;		_LED_control
  3824 ;; This function uses a non-reentrant model
  3825 ;;
  3826                           
  3827     039C                     _FAN_ON:	
  3828                           ;psect for function _FAN_ON
  3829                           
  3830     039C                     l2086:	
  3831                           ;incstack = 0
  3832                           ; Regs used in _FAN_ON: []
  3833                           
  3834     039C  0022               	movlb	2	; select bank2
  3835     039D  168D               	bsf	13,5	;volatile
  3836     039E                     l240:
  3837     039E  0008               	return
  3838     039F                     __end_of_FAN_ON:
  3839                           
  3840                           	psect	text17
  3841     039F                     __ptext17:	
  3842 ;; *************** function _FAN_OFF *****************
  3843 ;; Defined at:
  3844 ;;		line 21 in file "LED_output.c"
  3845 ;; Parameters:    Size  Location     Type
  3846 ;;		None
  3847 ;; Auto vars:     Size  Location     Type
  3848 ;;		None
  3849 ;; Return value:  Size  Location     Type
  3850 ;;                  1    wreg      void 
  3851 ;; Registers used:
  3852 ;;		None
  3853 ;; Tracked objects:
  3854 ;;		On entry : 0/0
  3855 ;;		On exit  : 0/0
  3856 ;;		Unchanged: 0/0
  3857 ;; Data sizes:     COMMON   BANK0   BANK1   BANK2   BANK3   BANK4   BANK5   BANK6
  3858 ;;      Params:         0       0       0       0       0       0       0       0
  3859 ;;      Locals:         0       0       0       0       0       0       0       0
  3860 ;;      Temps:          0       0       0       0       0       0       0       0
  3861 ;;      Totals:         0       0       0       0       0       0       0       0
  3862 ;;Total ram usage:        0 bytes
  3863 ;; Hardware stack levels used: 1
  3864 ;; Hardware stack levels required when called: 4
  3865 ;; This function calls:
  3866 ;;		Nothing
  3867 ;; This function is called by:
  3868 ;;		_to_do_unlock
  3869 ;;		_to_do_lamp_off
  3870 ;;		_LED_control
  3871 ;; This function uses a non-reentrant model
  3872 ;;
  3873                           
  3874     039F                     _FAN_OFF:	
  3875                           ;psect for function _FAN_OFF
  3876                           
  3877     039F                     l2088:	
  3878                           ;incstack = 0
  3879                           ; Regs used in _FAN_OFF: []
  3880                           
  3881     039F  0022               	movlb	2	; select bank2
  3882     03A0  128D               	bcf	13,5	;volatile
  3883     03A1                     l243:
  3884     03A1  0008               	return
  3885     03A2                     __end_of_FAN_OFF:
  3886                           
  3887                           	psect	text18
  3888     03A2                     __ptext18:	
  3889 ;; *************** function _DRL_ON *****************
  3890 ;; Defined at:
  3891 ;;		line 11 in file "LED_output.c"
  3892 ;; Parameters:    Size  Location     Type
  3893 ;;		None
  3894 ;; Auto vars:     Size  Location     Type
  3895 ;;		None
  3896 ;; Return value:  Size  Location     Type
  3897 ;;                  1    wreg      void 
  3898 ;; Registers used:
  3899 ;;		None
  3900 ;; Tracked objects:
  3901 ;;		On entry : 0/0
  3902 ;;		On exit  : 0/0
  3903 ;;		Unchanged: 0/0
  3904 ;; Data sizes:     COMMON   BANK0   BANK1   BANK2   BANK3   BANK4   BANK5   BANK6
  3905 ;;      Params:         0       0       0       0       0       0       0       0
  3906 ;;      Locals:         0       0       0       0       0       0       0       0
  3907 ;;      Temps:          0       0       0       0       0       0       0       0
  3908 ;;      Totals:         0       0       0       0       0       0       0       0
  3909 ;;Total ram usage:        0 bytes
  3910 ;; Hardware stack levels used: 1
  3911 ;; Hardware stack levels required when called: 4
  3912 ;; This function calls:
  3913 ;;		Nothing
  3914 ;; This function is called by:
  3915 ;;		_LED_control
  3916 ;; This function uses a non-reentrant model
  3917 ;;
  3918                           
  3919     03A2                     _DRL_ON:	
  3920                           ;psect for function _DRL_ON
  3921                           
  3922     03A2                     l2078:	
  3923                           ;incstack = 0
  3924                           ; Regs used in _DRL_ON: []
  3925                           
  3926     03A2  0022               	movlb	2	; select bank2
  3927     03A3  150C               	bsf	12,2	;volatile
  3928     03A4                     l228:
  3929     03A4  0008               	return
  3930     03A5                     __end_of_DRL_ON:
  3931                           
  3932                           	psect	text19
  3933     03A5                     __ptext19:	
  3934 ;; *************** function _DRL_OFF *****************
  3935 ;; Defined at:
  3936 ;;		line 13 in file "LED_output.c"
  3937 ;; Parameters:    Size  Location     Type
  3938 ;;		None
  3939 ;; Auto vars:     Size  Location     Type
  3940 ;;		None
  3941 ;; Return value:  Size  Location     Type
  3942 ;;                  1    wreg      void 
  3943 ;; Registers used:
  3944 ;;		None
  3945 ;; Tracked objects:
  3946 ;;		On entry : 0/0
  3947 ;;		On exit  : 0/0
  3948 ;;		Unchanged: 0/0
  3949 ;; Data sizes:     COMMON   BANK0   BANK1   BANK2   BANK3   BANK4   BANK5   BANK6
  3950 ;;      Params:         0       0       0       0       0       0       0       0
  3951 ;;      Locals:         0       0       0       0       0       0       0       0
  3952 ;;      Temps:          0       0       0       0       0       0       0       0
  3953 ;;      Totals:         0       0       0       0       0       0       0       0
  3954 ;;Total ram usage:        0 bytes
  3955 ;; Hardware stack levels used: 1
  3956 ;; Hardware stack levels required when called: 4
  3957 ;; This function calls:
  3958 ;;		Nothing
  3959 ;; This function is called by:
  3960 ;;		_to_do_unlock
  3961 ;;		_to_do_lamp_off
  3962 ;;		_LED_control
  3963 ;; This function uses a non-reentrant model
  3964 ;;
  3965                           
  3966     03A5                     _DRL_OFF:	
  3967                           ;psect for function _DRL_OFF
  3968                           
  3969     03A5                     l2080:	
  3970                           ;incstack = 0
  3971                           ; Regs used in _DRL_OFF: []
  3972                           
  3973     03A5  0022               	movlb	2	; select bank2
  3974     03A6  110C               	bcf	12,2	;volatile
  3975     03A7                     l231:
  3976     03A7  0008               	return
  3977     03A8                     __end_of_DRL_OFF:
  3978                           
  3979                           	psect	text20
  3980     0331                     __ptext20:	
  3981 ;; *************** function _sofaware_initialize *****************
  3982 ;; Defined at:
  3983 ;;		line 495 in file "tundra.c"
  3984 ;; Parameters:    Size  Location     Type
  3985 ;;		None
  3986 ;; Auto vars:     Size  Location     Type
  3987 ;;		None
  3988 ;; Return value:  Size  Location     Type
  3989 ;;                  1    wreg      void 
  3990 ;; Registers used:
  3991 ;;		wreg, status,2, status,0, pclath, cstack
  3992 ;; Tracked objects:
  3993 ;;		On entry : 0/0
  3994 ;;		On exit  : 0/0
  3995 ;;		Unchanged: 0/0
  3996 ;; Data sizes:     COMMON   BANK0   BANK1   BANK2   BANK3   BANK4   BANK5   BANK6
  3997 ;;      Params:         0       0       0       0       0       0       0       0
  3998 ;;      Locals:         0       0       0       0       0       0       0       0
  3999 ;;      Temps:          0       0       0       0       0       0       0       0
  4000 ;;      Totals:         0       0       0       0       0       0       0       0
  4001 ;;Total ram usage:        0 bytes
  4002 ;; Hardware stack levels used: 1
  4003 ;; Hardware stack levels required when called: 7
  4004 ;; This function calls:
  4005 ;;		_Clear_No_Call_Warning
  4006 ;;		_TMR0_SetInterruptHandler
  4007 ;; This function is called by:
  4008 ;;		_main
  4009 ;; This function uses a non-reentrant model
  4010 ;;
  4011                           
  4012     0331                     _sofaware_initialize:	
  4013                           ;psect for function _sofaware_initialize
  4014                           
  4015     0331                     l2298:	
  4016                           ;incstack = 0
  4017                           ; Regs used in _sofaware_initialize: [wreg+status,2+status,0+pclath+cstack]
  4018                           
  4019                           
  4020                           ;tundra.c: 496:   TMR0_SetInterruptHandler(TMR0_10MS_Even);
  4021     0331  30EB               	movlw	low _TMR0_10MS_Even
  4022     0332  0020               	movlb	0	; select bank0
  4023     0333  00C3               	movwf	TMR0_SetInterruptHandler@InterruptHandler
  4024     0334  3002               	movlw	high _TMR0_10MS_Even
  4025     0335  00C4               	movwf	TMR0_SetInterruptHandler@InterruptHandler+1
  4026     0336  3183  236E  3183   	fcall	_TMR0_SetInterruptHandler
  4027     0339                     l2300:
  4028                           
  4029                           ;tundra.c: 497:   Clear_No_Call_Warning();
  4030     0339  3183  23C3  3183   	fcall	_Clear_No_Call_Warning
  4031     033C                     l469:
  4032     033C  0008               	return
  4033     033D                     __end_of_sofaware_initialize:
  4034                           
  4035                           	psect	text21
  4036     036E                     __ptext21:	
  4037 ;; *************** function _TMR0_SetInterruptHandler *****************
  4038 ;; Defined at:
  4039 ;;		line 140 in file "mcc_generated_files/tmr0.c"
  4040 ;; Parameters:    Size  Location     Type
  4041 ;;  InterruptHan    2    0[BANK0 ] PTR FTN()void 
  4042 ;;		 -> TMR0_10MS_Even(1), 
  4043 ;; Auto vars:     Size  Location     Type
  4044 ;;		None
  4045 ;; Return value:  Size  Location     Type
  4046 ;;                  1    wreg      void 
  4047 ;; Registers used:
  4048 ;;		wreg
  4049 ;; Tracked objects:
  4050 ;;		On entry : 0/0
  4051 ;;		On exit  : 0/0
  4052 ;;		Unchanged: 0/0
  4053 ;; Data sizes:     COMMON   BANK0   BANK1   BANK2   BANK3   BANK4   BANK5   BANK6
  4054 ;;      Params:         0       2       0       0       0       0       0       0
  4055 ;;      Locals:         0       0       0       0       0       0       0       0
  4056 ;;      Temps:          0       0       0       0       0       0       0       0
  4057 ;;      Totals:         0       2       0       0       0       0       0       0
  4058 ;;Total ram usage:        2 bytes
  4059 ;; Hardware stack levels used: 1
  4060 ;; Hardware stack levels required when called: 4
  4061 ;; This function calls:
  4062 ;;		Nothing
  4063 ;; This function is called by:
  4064 ;;		_sofaware_initialize
  4065 ;; This function uses a non-reentrant model
  4066 ;;
  4067                           
  4068     036E                     _TMR0_SetInterruptHandler:	
  4069                           ;psect for function _TMR0_SetInterruptHandler
  4070                           
  4071     036E                     l2158:	
  4072                           ;incstack = 0
  4073                           ; Regs used in _TMR0_SetInterruptHandler: [wreg]
  4074                           
  4075                           
  4076                           ;mcc_generated_files/tmr0.c: 141:     TMR0_InterruptHandler = InterruptHandler;
  4077     036E  0020               	movlb	0	; select bank0
  4078     036F  0844               	movf	TMR0_SetInterruptHandler@InterruptHandler+1,w
  4079     0370  00B2               	movwf	_TMR0_InterruptHandler+1
  4080     0371  0843               	movf	TMR0_SetInterruptHandler@InterruptHandler,w
  4081     0372  00B1               	movwf	_TMR0_InterruptHandler
  4082     0373                     l189:
  4083     0373  0008               	return
  4084     0374                     __end_of_TMR0_SetInterruptHandler:
  4085                           
  4086                           	psect	text22
  4087     03C3                     __ptext22:	
  4088 ;; *************** function _Clear_No_Call_Warning *****************
  4089 ;; Defined at:
  4090 ;;		line 124 in file "tundra.c"
  4091 ;; Parameters:    Size  Location     Type
  4092 ;;		None
  4093 ;; Auto vars:     Size  Location     Type
  4094 ;;  i               1    0        unsigned char 
  4095 ;; Return value:  Size  Location     Type
  4096 ;;                  1    wreg      void 
  4097 ;; Registers used:
  4098 ;;		status,2
  4099 ;; Tracked objects:
  4100 ;;		On entry : 0/0
  4101 ;;		On exit  : 0/0
  4102 ;;		Unchanged: 0/0
  4103 ;; Data sizes:     COMMON   BANK0   BANK1   BANK2   BANK3   BANK4   BANK5   BANK6
  4104 ;;      Params:         0       0       0       0       0       0       0       0
  4105 ;;      Locals:         0       0       0       0       0       0       0       0
  4106 ;;      Temps:          0       0       0       0       0       0       0       0
  4107 ;;      Totals:         0       0       0       0       0       0       0       0
  4108 ;;Total ram usage:        0 bytes
  4109 ;; Hardware stack levels used: 1
  4110 ;; Hardware stack levels required when called: 6
  4111 ;; This function calls:
  4112 ;;		_PIN_MANAGER_IOC
  4113 ;;		_TMR0_ReadTimer
  4114 ;;		_TMR0_Reload
  4115 ;;		_TMR0_WriteTimer
  4116 ;;		_TMR1_CheckGateValueStatus
  4117 ;;		_TMR1_HasOverflowOccured
  4118 ;;		_TMR1_ReadTimer
  4119 ;;		_TMR1_Reload
  4120 ;;		_TMR1_StartSinglePulseAcquisition
  4121 ;;		_TMR1_StartTimer
  4122 ;;		_TMR1_StopTimer
  4123 ;;		_TMR1_WriteTimer
  4124 ;; This function is called by:
  4125 ;;		_sofaware_initialize
  4126 ;; This function uses a non-reentrant model
  4127 ;;
  4128                           
  4129     03C3                     _Clear_No_Call_Warning:	
  4130                           ;psect for function _Clear_No_Call_Warning
  4131                           
  4132     03C3                     l2160:	
  4133                           ;incstack = 0
  4134                           ; Regs used in _Clear_No_Call_Warning: [status,2]
  4135                           
  4136     03C3                     l363:
  4137     03C3  0008               	return
  4138     03C4                     __end_of_Clear_No_Call_Warning:
  4139                           
  4140                           	psect	text23
  4141     03A8                     __ptext23:	
  4142 ;; *************** function _TMR1_StopTimer *****************
  4143 ;; Defined at:
  4144 ;;		line 92 in file "mcc_generated_files/tmr1.c"
  4145 ;; Parameters:    Size  Location     Type
  4146 ;;		None
  4147 ;; Auto vars:     Size  Location     Type
  4148 ;;		None
  4149 ;; Return value:  Size  Location     Type
  4150 ;;                  1    wreg      void 
  4151 ;; Registers used:
  4152 ;;		None
  4153 ;; Tracked objects:
  4154 ;;		On entry : 0/0
  4155 ;;		On exit  : 0/0
  4156 ;;		Unchanged: 0/0
  4157 ;; Data sizes:     COMMON   BANK0   BANK1   BANK2   BANK3   BANK4   BANK5   BANK6
  4158 ;;      Params:         0       0       0       0       0       0       0       0
  4159 ;;      Locals:         0       0       0       0       0       0       0       0
  4160 ;;      Temps:          0       0       0       0       0       0       0       0
  4161 ;;      Totals:         0       0       0       0       0       0       0       0
  4162 ;;Total ram usage:        0 bytes
  4163 ;; Hardware stack levels used: 1
  4164 ;; Hardware stack levels required when called: 4
  4165 ;; This function calls:
  4166 ;;		Nothing
  4167 ;; This function is called by:
  4168 ;;		_Clear_No_Call_Warning
  4169 ;; This function uses a non-reentrant model
  4170 ;;
  4171                           
  4172     03A8                     _TMR1_StopTimer:	
  4173                           ;psect for function _TMR1_StopTimer
  4174                           
  4175     03A8                     l2052:	
  4176                           ;incstack = 0
  4177                           ; Regs used in _TMR1_StopTimer: []
  4178                           
  4179                           
  4180                           ;mcc_generated_files/tmr1.c: 95:     T1CONbits.TMR1ON = 0;
  4181     03A8  0020               	movlb	0	; select bank0
  4182     03A9  1018               	bcf	24,0	;volatile
  4183     03AA                     l59:
  4184     03AA  0008               	return
  4185     03AB                     __end_of_TMR1_StopTimer:
  4186                           
  4187                           	psect	text24
  4188     03AB                     __ptext24:	
  4189 ;; *************** function _TMR1_StartTimer *****************
  4190 ;; Defined at:
  4191 ;;		line 86 in file "mcc_generated_files/tmr1.c"
  4192 ;; Parameters:    Size  Location     Type
  4193 ;;		None
  4194 ;; Auto vars:     Size  Location     Type
  4195 ;;		None
  4196 ;; Return value:  Size  Location     Type
  4197 ;;                  1    wreg      void 
  4198 ;; Registers used:
  4199 ;;		None
  4200 ;; Tracked objects:
  4201 ;;		On entry : 0/0
  4202 ;;		On exit  : 0/0
  4203 ;;		Unchanged: 0/0
  4204 ;; Data sizes:     COMMON   BANK0   BANK1   BANK2   BANK3   BANK4   BANK5   BANK6
  4205 ;;      Params:         0       0       0       0       0       0       0       0
  4206 ;;      Locals:         0       0       0       0       0       0       0       0
  4207 ;;      Temps:          0       0       0       0       0       0       0       0
  4208 ;;      Totals:         0       0       0       0       0       0       0       0
  4209 ;;Total ram usage:        0 bytes
  4210 ;; Hardware stack levels used: 1
  4211 ;; Hardware stack levels required when called: 4
  4212 ;; This function calls:
  4213 ;;		Nothing
  4214 ;; This function is called by:
  4215 ;;		_Clear_No_Call_Warning
  4216 ;; This function uses a non-reentrant model
  4217 ;;
  4218                           
  4219     03AB                     _TMR1_StartTimer:	
  4220                           ;psect for function _TMR1_StartTimer
  4221                           
  4222     03AB                     l2050:	
  4223                           ;incstack = 0
  4224                           ; Regs used in _TMR1_StartTimer: []
  4225                           
  4226                           
  4227                           ;mcc_generated_files/tmr1.c: 89:     T1CONbits.TMR1ON = 1;
  4228     03AB  0020               	movlb	0	; select bank0
  4229     03AC  1418               	bsf	24,0	;volatile
  4230     03AD                     l56:
  4231     03AD  0008               	return
  4232     03AE                     __end_of_TMR1_StartTimer:
  4233                           
  4234                           	psect	text25
  4235     03AE                     __ptext25:	
  4236 ;; *************** function _TMR1_StartSinglePulseAcquisition *****************
  4237 ;; Defined at:
  4238 ;;		line 140 in file "mcc_generated_files/tmr1.c"
  4239 ;; Parameters:    Size  Location     Type
  4240 ;;		None
  4241 ;; Auto vars:     Size  Location     Type
  4242 ;;		None
  4243 ;; Return value:  Size  Location     Type
  4244 ;;                  1    wreg      void 
  4245 ;; Registers used:
  4246 ;;		None
  4247 ;; Tracked objects:
  4248 ;;		On entry : 0/0
  4249 ;;		On exit  : 0/0
  4250 ;;		Unchanged: 0/0
  4251 ;; Data sizes:     COMMON   BANK0   BANK1   BANK2   BANK3   BANK4   BANK5   BANK6
  4252 ;;      Params:         0       0       0       0       0       0       0       0
  4253 ;;      Locals:         0       0       0       0       0       0       0       0
  4254 ;;      Temps:          0       0       0       0       0       0       0       0
  4255 ;;      Totals:         0       0       0       0       0       0       0       0
  4256 ;;Total ram usage:        0 bytes
  4257 ;; Hardware stack levels used: 1
  4258 ;; Hardware stack levels required when called: 4
  4259 ;; This function calls:
  4260 ;;		Nothing
  4261 ;; This function is called by:
  4262 ;;		_Clear_No_Call_Warning
  4263 ;; This function uses a non-reentrant model
  4264 ;;
  4265                           
  4266     03AE                     _TMR1_StartSinglePulseAcquisition:	
  4267                           ;psect for function _TMR1_StartSinglePulseAcquisition
  4268                           
  4269     03AE                     l2060:	
  4270                           ;incstack = 0
  4271                           ; Regs used in _TMR1_StartSinglePulseAcquisition: []
  4272                           
  4273                           
  4274                           ;mcc_generated_files/tmr1.c: 142:     T1GCONbits.T1GGO = 1;
  4275     03AE  0020               	movlb	0	; select bank0
  4276     03AF  1599               	bsf	25,3	;volatile
  4277     03B0                     l73:
  4278     03B0  0008               	return
  4279     03B1                     __end_of_TMR1_StartSinglePulseAcquisition:
  4280                           
  4281                           	psect	text26
  4282     035F                     __ptext26:	
  4283 ;; *************** function _TMR1_Reload *****************
  4284 ;; Defined at:
  4285 ;;		line 135 in file "mcc_generated_files/tmr1.c"
  4286 ;; Parameters:    Size  Location     Type
  4287 ;;		None
  4288 ;; Auto vars:     Size  Location     Type
  4289 ;;		None
  4290 ;; Return value:  Size  Location     Type
  4291 ;;                  1    wreg      void 
  4292 ;; Registers used:
  4293 ;;		wreg, status,2, status,0, pclath, cstack
  4294 ;; Tracked objects:
  4295 ;;		On entry : 0/0
  4296 ;;		On exit  : 0/0
  4297 ;;		Unchanged: 0/0
  4298 ;; Data sizes:     COMMON   BANK0   BANK1   BANK2   BANK3   BANK4   BANK5   BANK6
  4299 ;;      Params:         0       0       0       0       0       0       0       0
  4300 ;;      Locals:         0       0       0       0       0       0       0       0
  4301 ;;      Temps:          0       0       0       0       0       0       0       0
  4302 ;;      Totals:         0       0       0       0       0       0       0       0
  4303 ;;Total ram usage:        0 bytes
  4304 ;; Hardware stack levels used: 1
  4305 ;; Hardware stack levels required when called: 5
  4306 ;; This function calls:
  4307 ;;		_TMR1_WriteTimer
  4308 ;; This function is called by:
  4309 ;;		_Clear_No_Call_Warning
  4310 ;; This function uses a non-reentrant model
  4311 ;;
  4312                           
  4313     035F                     _TMR1_Reload:	
  4314                           ;psect for function _TMR1_Reload
  4315                           
  4316     035F                     l2058:	
  4317                           ;incstack = 0
  4318                           ; Regs used in _TMR1_Reload: [wreg+status,2+status,0+pclath+cstack]
  4319                           
  4320                           
  4321                           ;mcc_generated_files/tmr1.c: 137:     TMR1_WriteTimer(timer1ReloadVal);
  4322     035F  0020               	movlb	0	; select bank0
  4323     0360  0834               	movf	_timer1ReloadVal+1,w	;volatile
  4324     0361  00C4               	movwf	TMR1_WriteTimer@timerVal+1
  4325     0362  0833               	movf	_timer1ReloadVal,w	;volatile
  4326     0363  00C3               	movwf	TMR1_WriteTimer@timerVal
  4327     0364  3182  22DA  3183   	fcall	_TMR1_WriteTimer
  4328     0367                     l70:
  4329     0367  0008               	return
  4330     0368                     __end_of_TMR1_Reload:
  4331                           
  4332                           	psect	text27
  4333     02DA                     __ptext27:	
  4334 ;; *************** function _TMR1_WriteTimer *****************
  4335 ;; Defined at:
  4336 ;;		line 113 in file "mcc_generated_files/tmr1.c"
  4337 ;; Parameters:    Size  Location     Type
  4338 ;;  timerVal        2    0[BANK0 ] unsigned short 
  4339 ;; Auto vars:     Size  Location     Type
  4340 ;;		None
  4341 ;; Return value:  Size  Location     Type
  4342 ;;                  1    wreg      void 
  4343 ;; Registers used:
  4344 ;;		wreg, status,2
  4345 ;; Tracked objects:
  4346 ;;		On entry : 0/0
  4347 ;;		On exit  : 0/0
  4348 ;;		Unchanged: 0/0
  4349 ;; Data sizes:     COMMON   BANK0   BANK1   BANK2   BANK3   BANK4   BANK5   BANK6
  4350 ;;      Params:         0       2       0       0       0       0       0       0
  4351 ;;      Locals:         0       0       0       0       0       0       0       0
  4352 ;;      Temps:          0       0       0       0       0       0       0       0
  4353 ;;      Totals:         0       2       0       0       0       0       0       0
  4354 ;;Total ram usage:        2 bytes
  4355 ;; Hardware stack levels used: 1
  4356 ;; Hardware stack levels required when called: 4
  4357 ;; This function calls:
  4358 ;;		Nothing
  4359 ;; This function is called by:
  4360 ;;		_TMR1_Reload
  4361 ;;		_Clear_No_Call_Warning
  4362 ;; This function uses a non-reentrant model
  4363 ;;
  4364                           
  4365     02DA                     _TMR1_WriteTimer:	
  4366                           ;psect for function _TMR1_WriteTimer
  4367                           
  4368     02DA                     l2036:	
  4369                           ;incstack = 0
  4370                           ; Regs used in _TMR1_WriteTimer: [wreg+status,2]
  4371                           
  4372                           
  4373                           ;mcc_generated_files/tmr1.c: 113: void TMR1_WriteTimer(uint16_t timerVal);mcc_generated_
      +                          files/tmr1.c: 114: {;mcc_generated_files/tmr1.c: 115:     if (T1CONbits.nT1SYNC == 1)
  4374     02DA  0020               	movlb	0	; select bank0
  4375     02DB  1D18               	btfss	24,2	;volatile
  4376     02DC  2ADE               	goto	u841
  4377     02DD  2ADF               	goto	u840
  4378     02DE                     u841:
  4379     02DE  2AE6               	goto	l2046
  4380     02DF                     u840:
  4381     02DF                     l2038:
  4382                           
  4383                           ;mcc_generated_files/tmr1.c: 116:     {;mcc_generated_files/tmr1.c: 118:         T1CONbi
      +                          ts.TMR1ON = 0;
  4384     02DF  1018               	bcf	24,0	;volatile
  4385     02E0                     l2040:
  4386                           
  4387                           ;mcc_generated_files/tmr1.c: 121:         TMR1H = (uint8_t)(timerVal >> 8);
  4388     02E0  0844               	movf	TMR1_WriteTimer@timerVal+1,w
  4389     02E1  0097               	movwf	23	;volatile
  4390     02E2                     l2042:
  4391                           
  4392                           ;mcc_generated_files/tmr1.c: 122:         TMR1L = (uint8_t)timerVal;
  4393     02E2  0843               	movf	TMR1_WriteTimer@timerVal,w
  4394     02E3  0096               	movwf	22	;volatile
  4395     02E4                     l2044:
  4396                           
  4397                           ;mcc_generated_files/tmr1.c: 125:         T1CONbits.TMR1ON =1;
  4398     02E4  1418               	bsf	24,0	;volatile
  4399                           
  4400                           ;mcc_generated_files/tmr1.c: 126:     }
  4401     02E5  2AEA               	goto	l67
  4402     02E6                     l2046:
  4403                           
  4404                           ;mcc_generated_files/tmr1.c: 128:     {;mcc_generated_files/tmr1.c: 130:         TMR1H =
      +                           (uint8_t)(timerVal >> 8);
  4405     02E6  0844               	movf	TMR1_WriteTimer@timerVal+1,w
  4406     02E7  0097               	movwf	23	;volatile
  4407     02E8                     l2048:
  4408                           
  4409                           ;mcc_generated_files/tmr1.c: 131:         TMR1L = (uint8_t)timerVal;
  4410     02E8  0843               	movf	TMR1_WriteTimer@timerVal,w
  4411     02E9  0096               	movwf	22	;volatile
  4412     02EA                     l67:
  4413     02EA  0008               	return
  4414     02EB                     __end_of_TMR1_WriteTimer:
  4415                           
  4416                           	psect	text28
  4417     0374                     __ptext28:	
  4418 ;; *************** function _TMR1_ReadTimer *****************
  4419 ;; Defined at:
  4420 ;;		line 98 in file "mcc_generated_files/tmr1.c"
  4421 ;; Parameters:    Size  Location     Type
  4422 ;;		None
  4423 ;; Auto vars:     Size  Location     Type
  4424 ;;  readVal         2    0        unsigned short 
  4425 ;;  readValLow      1    1[BANK0 ] unsigned char 
  4426 ;;  readValHigh     1    0[BANK0 ] unsigned char 
  4427 ;; Return value:  Size  Location     Type
  4428 ;;                  2   61[None  ] unsigned short 
  4429 ;; Registers used:
  4430 ;;		wreg
  4431 ;; Tracked objects:
  4432 ;;		On entry : 0/0
  4433 ;;		On exit  : 0/0
  4434 ;;		Unchanged: 0/0
  4435 ;; Data sizes:     COMMON   BANK0   BANK1   BANK2   BANK3   BANK4   BANK5   BANK6
  4436 ;;      Params:         0       0       0       0       0       0       0       0
  4437 ;;      Locals:         0       2       0       0       0       0       0       0
  4438 ;;      Temps:          0       0       0       0       0       0       0       0
  4439 ;;      Totals:         0       2       0       0       0       0       0       0
  4440 ;;Total ram usage:        2 bytes
  4441 ;; Hardware stack levels used: 1
  4442 ;; Hardware stack levels required when called: 4
  4443 ;; This function calls:
  4444 ;;		Nothing
  4445 ;; This function is called by:
  4446 ;;		_Clear_No_Call_Warning
  4447 ;; This function uses a non-reentrant model
  4448 ;;
  4449                           
  4450     0374                     _TMR1_ReadTimer:	
  4451                           ;psect for function _TMR1_ReadTimer
  4452                           
  4453     0374                     l2054:	
  4454                           ;incstack = 0
  4455                           ; Regs used in _TMR1_ReadTimer: [wreg]
  4456                           
  4457                           
  4458                           ;mcc_generated_files/tmr1.c: 100:     uint16_t readVal;;mcc_generated_files/tmr1.c: 101:
      +                               uint8_t readValHigh;;mcc_generated_files/tmr1.c: 102:     uint8_t readValLow;;mcc_g
      +                          enerated_files/tmr1.c: 105:     readValLow = TMR1L;
  4459     0374  0020               	movlb	0	; select bank0
  4460     0375  0816               	movf	22,w	;volatile
  4461     0376  00C4               	movwf	TMR1_ReadTimer@readValLow
  4462                           
  4463                           ;mcc_generated_files/tmr1.c: 106:     readValHigh = TMR1H;
  4464     0377  0817               	movf	23,w	;volatile
  4465     0378  00C3               	movwf	TMR1_ReadTimer@readValHigh
  4466     0379                     l62:
  4467     0379  0008               	return
  4468     037A                     __end_of_TMR1_ReadTimer:
  4469                           
  4470                           	psect	text29
  4471     03B1                     __ptext29:	
  4472 ;; *************** function _TMR1_HasOverflowOccured *****************
  4473 ;; Defined at:
  4474 ;;		line 150 in file "mcc_generated_files/tmr1.c"
  4475 ;; Parameters:    Size  Location     Type
  4476 ;;		None
  4477 ;; Auto vars:     Size  Location     Type
  4478 ;;		None
  4479 ;; Return value:  Size  Location     Type
  4480 ;;                  1    wreg      _Bool 
  4481 ;; Registers used:
  4482 ;;		wreg
  4483 ;; Tracked objects:
  4484 ;;		On entry : 0/0
  4485 ;;		On exit  : 0/0
  4486 ;;		Unchanged: 0/0
  4487 ;; Data sizes:     COMMON   BANK0   BANK1   BANK2   BANK3   BANK4   BANK5   BANK6
  4488 ;;      Params:         0       0       0       0       0       0       0       0
  4489 ;;      Locals:         0       0       0       0       0       0       0       0
  4490 ;;      Temps:          0       0       0       0       0       0       0       0
  4491 ;;      Totals:         0       0       0       0       0       0       0       0
  4492 ;;Total ram usage:        0 bytes
  4493 ;; Hardware stack levels used: 1
  4494 ;; Hardware stack levels required when called: 4
  4495 ;; This function calls:
  4496 ;;		Nothing
  4497 ;; This function is called by:
  4498 ;;		_Clear_No_Call_Warning
  4499 ;; This function uses a non-reentrant model
  4500 ;;
  4501                           
  4502     03B1                     _TMR1_HasOverflowOccured:	
  4503                           ;psect for function _TMR1_HasOverflowOccured
  4504                           
  4505     03B1                     l2066:	
  4506                           ;incstack = 0
  4507                           ; Regs used in _TMR1_HasOverflowOccured: [wreg]
  4508                           
  4509                           
  4510                           ;mcc_generated_files/tmr1.c: 153:     return(PIR1bits.TMR1IF);;	Return value of _TMR1_Ha
      +                          sOverflowOccured is never used
  4511     03B1  0020               	movlb	0	; select bank0
  4512     03B2  0811               	movf	17,w	;volatile
  4513     03B3                     l79:
  4514     03B3  0008               	return
  4515     03B4                     __end_of_TMR1_HasOverflowOccured:
  4516                           
  4517                           	psect	text30
  4518     03B4                     __ptext30:	
  4519 ;; *************** function _TMR1_CheckGateValueStatus *****************
  4520 ;; Defined at:
  4521 ;;		line 145 in file "mcc_generated_files/tmr1.c"
  4522 ;; Parameters:    Size  Location     Type
  4523 ;;		None
  4524 ;; Auto vars:     Size  Location     Type
  4525 ;;		None
  4526 ;; Return value:  Size  Location     Type
  4527 ;;                  1    wreg      unsigned char 
  4528 ;; Registers used:
  4529 ;;		wreg
  4530 ;; Tracked objects:
  4531 ;;		On entry : 0/0
  4532 ;;		On exit  : 0/0
  4533 ;;		Unchanged: 0/0
  4534 ;; Data sizes:     COMMON   BANK0   BANK1   BANK2   BANK3   BANK4   BANK5   BANK6
  4535 ;;      Params:         0       0       0       0       0       0       0       0
  4536 ;;      Locals:         0       0       0       0       0       0       0       0
  4537 ;;      Temps:          0       0       0       0       0       0       0       0
  4538 ;;      Totals:         0       0       0       0       0       0       0       0
  4539 ;;Total ram usage:        0 bytes
  4540 ;; Hardware stack levels used: 1
  4541 ;; Hardware stack levels required when called: 4
  4542 ;; This function calls:
  4543 ;;		Nothing
  4544 ;; This function is called by:
  4545 ;;		_Clear_No_Call_Warning
  4546 ;; This function uses a non-reentrant model
  4547 ;;
  4548                           
  4549     03B4                     _TMR1_CheckGateValueStatus:	
  4550                           ;psect for function _TMR1_CheckGateValueStatus
  4551                           
  4552     03B4                     l2062:	
  4553                           ;incstack = 0
  4554                           ; Regs used in _TMR1_CheckGateValueStatus: [wreg]
  4555                           
  4556                           
  4557                           ;mcc_generated_files/tmr1.c: 147:     return (T1GCONbits.T1GVAL);;	Return value of _TMR1
      +                          _CheckGateValueStatus is never used
  4558     03B4  0020               	movlb	0	; select bank0
  4559     03B5  0819               	movf	25,w	;volatile
  4560     03B6                     l76:
  4561     03B6  0008               	return
  4562     03B7                     __end_of_TMR1_CheckGateValueStatus:
  4563                           
  4564                           	psect	text31
  4565     037A                     __ptext31:	
  4566 ;; *************** function _TMR0_WriteTimer *****************
  4567 ;; Defined at:
  4568 ;;		line 96 in file "mcc_generated_files/tmr0.c"
  4569 ;; Parameters:    Size  Location     Type
  4570 ;;  timerVal        1    wreg     unsigned char 
  4571 ;; Auto vars:     Size  Location     Type
  4572 ;;  timerVal        1    0[BANK0 ] unsigned char 
  4573 ;; Return value:  Size  Location     Type
  4574 ;;                  1    wreg      void 
  4575 ;; Registers used:
  4576 ;;		wreg
  4577 ;; Tracked objects:
  4578 ;;		On entry : 0/0
  4579 ;;		On exit  : 0/0
  4580 ;;		Unchanged: 0/0
  4581 ;; Data sizes:     COMMON   BANK0   BANK1   BANK2   BANK3   BANK4   BANK5   BANK6
  4582 ;;      Params:         0       0       0       0       0       0       0       0
  4583 ;;      Locals:         0       1       0       0       0       0       0       0
  4584 ;;      Temps:          0       0       0       0       0       0       0       0
  4585 ;;      Totals:         0       1       0       0       0       0       0       0
  4586 ;;Total ram usage:        1 bytes
  4587 ;; Hardware stack levels used: 1
  4588 ;; Hardware stack levels required when called: 4
  4589 ;; This function calls:
  4590 ;;		Nothing
  4591 ;; This function is called by:
  4592 ;;		_Clear_No_Call_Warning
  4593 ;; This function uses a non-reentrant model
  4594 ;;
  4595                           
  4596     037A                     _TMR0_WriteTimer:	
  4597                           ;psect for function _TMR0_WriteTimer
  4598                           
  4599                           
  4600                           ;incstack = 0
  4601                           ; Regs used in _TMR0_WriteTimer: [wreg]
  4602                           ;TMR0_WriteTimer@timerVal stored from wreg
  4603     037A  0020               	movlb	0	; select bank0
  4604     037B  00C3               	movwf	TMR0_WriteTimer@timerVal
  4605     037C                     l2074:
  4606                           
  4607                           ;mcc_generated_files/tmr0.c: 96: void TMR0_WriteTimer(uint8_t timerVal);mcc_generated_fi
      +                          les/tmr0.c: 97: {;mcc_generated_files/tmr0.c: 99:     TMR0 = timerVal;
  4608     037C  0843               	movf	TMR0_WriteTimer@timerVal,w
  4609     037D  0095               	movwf	21	;volatile
  4610     037E                     l173:
  4611     037E  0008               	return
  4612     037F                     __end_of_TMR0_WriteTimer:
  4613                           
  4614                           	psect	text32
  4615     037F                     __ptext32:	
  4616 ;; *************** function _TMR0_Reload *****************
  4617 ;; Defined at:
  4618 ;;		line 102 in file "mcc_generated_files/tmr0.c"
  4619 ;; Parameters:    Size  Location     Type
  4620 ;;		None
  4621 ;; Auto vars:     Size  Location     Type
  4622 ;;		None
  4623 ;; Return value:  Size  Location     Type
  4624 ;;                  1    wreg      void 
  4625 ;; Registers used:
  4626 ;;		wreg
  4627 ;; Tracked objects:
  4628 ;;		On entry : 0/0
  4629 ;;		On exit  : 0/0
  4630 ;;		Unchanged: 0/0
  4631 ;; Data sizes:     COMMON   BANK0   BANK1   BANK2   BANK3   BANK4   BANK5   BANK6
  4632 ;;      Params:         0       0       0       0       0       0       0       0
  4633 ;;      Locals:         0       0       0       0       0       0       0       0
  4634 ;;      Temps:          0       0       0       0       0       0       0       0
  4635 ;;      Totals:         0       0       0       0       0       0       0       0
  4636 ;;Total ram usage:        0 bytes
  4637 ;; Hardware stack levels used: 1
  4638 ;; Hardware stack levels required when called: 4
  4639 ;; This function calls:
  4640 ;;		Nothing
  4641 ;; This function is called by:
  4642 ;;		_Clear_No_Call_Warning
  4643 ;; This function uses a non-reentrant model
  4644 ;;
  4645                           
  4646     037F                     _TMR0_Reload:	
  4647                           ;psect for function _TMR0_Reload
  4648                           
  4649     037F                     l2076:	
  4650                           ;incstack = 0
  4651                           ; Regs used in _TMR0_Reload: [wreg]
  4652                           
  4653                           
  4654                           ;mcc_generated_files/tmr0.c: 105:     TMR0 = timer0ReloadVal;
  4655     037F  0876               	movf	_timer0ReloadVal,w	;volatile
  4656     0380  0020               	movlb	0	; select bank0
  4657     0381  0095               	movwf	21	;volatile
  4658     0382                     l176:
  4659     0382  0008               	return
  4660     0383                     __end_of_TMR0_Reload:
  4661                           
  4662                           	psect	text33
  4663     03B7                     __ptext33:	
  4664 ;; *************** function _TMR0_ReadTimer *****************
  4665 ;; Defined at:
  4666 ;;		line 87 in file "mcc_generated_files/tmr0.c"
  4667 ;; Parameters:    Size  Location     Type
  4668 ;;		None
  4669 ;; Auto vars:     Size  Location     Type
  4670 ;;  readVal         1    0        unsigned char 
  4671 ;; Return value:  Size  Location     Type
  4672 ;;                  1    wreg      unsigned char 
  4673 ;; Registers used:
  4674 ;;		wreg
  4675 ;; Tracked objects:
  4676 ;;		On entry : 0/0
  4677 ;;		On exit  : 0/0
  4678 ;;		Unchanged: 0/0
  4679 ;; Data sizes:     COMMON   BANK0   BANK1   BANK2   BANK3   BANK4   BANK5   BANK6
  4680 ;;      Params:         0       0       0       0       0       0       0       0
  4681 ;;      Locals:         0       0       0       0       0       0       0       0
  4682 ;;      Temps:          0       0       0       0       0       0       0       0
  4683 ;;      Totals:         0       0       0       0       0       0       0       0
  4684 ;;Total ram usage:        0 bytes
  4685 ;; Hardware stack levels used: 1
  4686 ;; Hardware stack levels required when called: 4
  4687 ;; This function calls:
  4688 ;;		Nothing
  4689 ;; This function is called by:
  4690 ;;		_Clear_No_Call_Warning
  4691 ;; This function uses a non-reentrant model
  4692 ;;
  4693                           
  4694     03B7                     _TMR0_ReadTimer:	
  4695                           ;psect for function _TMR0_ReadTimer
  4696                           
  4697     03B7                     l2070:	
  4698                           ;incstack = 0
  4699                           ; Regs used in _TMR0_ReadTimer: [wreg]
  4700                           
  4701     03B7  0020               	movlb	0	; select bank0
  4702     03B8  0815               	movf	21,w	;volatile
  4703     03B9                     l170:
  4704     03B9  0008               	return
  4705     03BA                     __end_of_TMR0_ReadTimer:
  4706                           
  4707                           	psect	text34
  4708     03C4                     __ptext34:	
  4709 ;; *************** function _PIN_MANAGER_IOC *****************
  4710 ;; Defined at:
  4711 ;;		line 99 in file "mcc_generated_files/pin_manager.c"
  4712 ;; Parameters:    Size  Location     Type
  4713 ;;		None
  4714 ;; Auto vars:     Size  Location     Type
  4715 ;;		None
  4716 ;; Return value:  Size  Location     Type
  4717 ;;                  1    wreg      void 
  4718 ;; Registers used:
  4719 ;;		None
  4720 ;; Tracked objects:
  4721 ;;		On entry : 0/0
  4722 ;;		On exit  : 0/0
  4723 ;;		Unchanged: 0/0
  4724 ;; Data sizes:     COMMON   BANK0   BANK1   BANK2   BANK3   BANK4   BANK5   BANK6
  4725 ;;      Params:         0       0       0       0       0       0       0       0
  4726 ;;      Locals:         0       0       0       0       0       0       0       0
  4727 ;;      Temps:          0       0       0       0       0       0       0       0
  4728 ;;      Totals:         0       0       0       0       0       0       0       0
  4729 ;;Total ram usage:        0 bytes
  4730 ;; Hardware stack levels used: 1
  4731 ;; Hardware stack levels required when called: 4
  4732 ;; This function calls:
  4733 ;;		Nothing
  4734 ;; This function is called by:
  4735 ;;		_Clear_No_Call_Warning
  4736 ;; This function uses a non-reentrant model
  4737 ;;
  4738                           
  4739     03C4                     _PIN_MANAGER_IOC:	
  4740                           ;psect for function _PIN_MANAGER_IOC
  4741                           
  4742     03C4                     l113:	
  4743                           ;incstack = 0
  4744                           ; Regs used in _PIN_MANAGER_IOC: []
  4745                           
  4746     03C4  0008               	return
  4747     03C5                     __end_of_PIN_MANAGER_IOC:
  4748                           
  4749                           	psect	text35
  4750     0281                     __ptext35:	
  4751 ;; *************** function _SYSTEM_Initialize *****************
  4752 ;; Defined at:
  4753 ;;		line 50 in file "mcc_generated_files/mcc.c"
  4754 ;; Parameters:    Size  Location     Type
  4755 ;;		None
  4756 ;; Auto vars:     Size  Location     Type
  4757 ;;		None
  4758 ;; Return value:  Size  Location     Type
  4759 ;;                  1    wreg      void 
  4760 ;; Registers used:
  4761 ;;		wreg, status,2, status,0, pclath, cstack
  4762 ;; Tracked objects:
  4763 ;;		On entry : 0/0
  4764 ;;		On exit  : 0/0
  4765 ;;		Unchanged: 0/0
  4766 ;; Data sizes:     COMMON   BANK0   BANK1   BANK2   BANK3   BANK4   BANK5   BANK6
  4767 ;;      Params:         0       0       0       0       0       0       0       0
  4768 ;;      Locals:         0       0       0       0       0       0       0       0
  4769 ;;      Temps:          0       0       0       0       0       0       0       0
  4770 ;;      Totals:         0       0       0       0       0       0       0       0
  4771 ;;Total ram usage:        0 bytes
  4772 ;; Hardware stack levels used: 1
  4773 ;; Hardware stack levels required when called: 5
  4774 ;; This function calls:
  4775 ;;		_ECCP3_Initialize
  4776 ;;		_OSCILLATOR_Initialize
  4777 ;;		_PIN_MANAGER_Initialize
  4778 ;;		_TMR0_Initialize
  4779 ;;		_TMR1_Initialize
  4780 ;;		_WDT_Initialize
  4781 ;; This function is called by:
  4782 ;;		_main
  4783 ;; This function uses a non-reentrant model
  4784 ;;
  4785                           
  4786     0281                     _SYSTEM_Initialize:	
  4787                           ;psect for function _SYSTEM_Initialize
  4788                           
  4789     0281                     l2296:	
  4790                           ;incstack = 0
  4791                           ; Regs used in _SYSTEM_Initialize: [wreg+status,2+status,0+pclath+cstack]
  4792                           
  4793                           
  4794                           ;mcc_generated_files/mcc.c: 53:     PIN_MANAGER_Initialize();
  4795     0281  3182  224D  3182   	fcall	_PIN_MANAGER_Initialize
  4796                           
  4797                           ;mcc_generated_files/mcc.c: 54:     OSCILLATOR_Initialize();
  4798     0284  3183  2349  3182   	fcall	_OSCILLATOR_Initialize
  4799                           
  4800                           ;mcc_generated_files/mcc.c: 55:     WDT_Initialize();
  4801     0287  3183  2383  3182   	fcall	_WDT_Initialize
  4802                           
  4803                           ;mcc_generated_files/mcc.c: 56:     ECCP3_Initialize();
  4804     028A  3183  2355  3182   	fcall	_ECCP3_Initialize
  4805                           
  4806                           ;mcc_generated_files/mcc.c: 57:     TMR1_Initialize();
  4807     028D  3183  233D  3182   	fcall	_TMR1_Initialize
  4808                           
  4809                           ;mcc_generated_files/mcc.c: 58:     TMR0_Initialize();
  4810     0290  3183  2317  3182   	fcall	_TMR0_Initialize
  4811     0293                     l25:
  4812     0293  0008               	return
  4813     0294                     __end_of_SYSTEM_Initialize:
  4814                           
  4815                           	psect	text36
  4816     0383                     __ptext36:	
  4817 ;; *************** function _WDT_Initialize *****************
  4818 ;; Defined at:
  4819 ;;		line 75 in file "mcc_generated_files/mcc.c"
  4820 ;; Parameters:    Size  Location     Type
  4821 ;;		None
  4822 ;; Auto vars:     Size  Location     Type
  4823 ;;		None
  4824 ;; Return value:  Size  Location     Type
  4825 ;;                  1    wreg      void 
  4826 ;; Registers used:
  4827 ;;		wreg
  4828 ;; Tracked objects:
  4829 ;;		On entry : 0/0
  4830 ;;		On exit  : 0/0
  4831 ;;		Unchanged: 0/0
  4832 ;; Data sizes:     COMMON   BANK0   BANK1   BANK2   BANK3   BANK4   BANK5   BANK6
  4833 ;;      Params:         0       0       0       0       0       0       0       0
  4834 ;;      Locals:         0       0       0       0       0       0       0       0
  4835 ;;      Temps:          0       0       0       0       0       0       0       0
  4836 ;;      Totals:         0       0       0       0       0       0       0       0
  4837 ;;Total ram usage:        0 bytes
  4838 ;; Hardware stack levels used: 1
  4839 ;; Hardware stack levels required when called: 4
  4840 ;; This function calls:
  4841 ;;		Nothing
  4842 ;; This function is called by:
  4843 ;;		_SYSTEM_Initialize
  4844 ;; This function uses a non-reentrant model
  4845 ;;
  4846                           
  4847     0383                     _WDT_Initialize:	
  4848                           ;psect for function _WDT_Initialize
  4849                           
  4850     0383                     l2128:	
  4851                           ;incstack = 0
  4852                           ; Regs used in _WDT_Initialize: [wreg]
  4853                           
  4854                           
  4855                           ;mcc_generated_files/mcc.c: 78:     WDTCON = 0x16;
  4856     0383  3016               	movlw	22
  4857     0384  0021               	movlb	1	; select bank1
  4858     0385  0097               	movwf	23	;volatile
  4859     0386                     l34:
  4860     0386  0008               	return
  4861     0387                     __end_of_WDT_Initialize:
  4862                           
  4863                           	psect	text37
  4864     033D                     __ptext37:	
  4865 ;; *************** function _TMR1_Initialize *****************
  4866 ;; Defined at:
  4867 ;;		line 63 in file "mcc_generated_files/tmr1.c"
  4868 ;; Parameters:    Size  Location     Type
  4869 ;;		None
  4870 ;; Auto vars:     Size  Location     Type
  4871 ;;		None
  4872 ;; Return value:  Size  Location     Type
  4873 ;;                  1    wreg      void 
  4874 ;; Registers used:
  4875 ;;		wreg, status,2
  4876 ;; Tracked objects:
  4877 ;;		On entry : 0/0
  4878 ;;		On exit  : 0/0
  4879 ;;		Unchanged: 0/0
  4880 ;; Data sizes:     COMMON   BANK0   BANK1   BANK2   BANK3   BANK4   BANK5   BANK6
  4881 ;;      Params:         0       0       0       0       0       0       0       0
  4882 ;;      Locals:         0       0       0       0       0       0       0       0
  4883 ;;      Temps:          0       0       0       0       0       0       0       0
  4884 ;;      Totals:         0       0       0       0       0       0       0       0
  4885 ;;Total ram usage:        0 bytes
  4886 ;; Hardware stack levels used: 1
  4887 ;; Hardware stack levels required when called: 4
  4888 ;; This function calls:
  4889 ;;		Nothing
  4890 ;; This function is called by:
  4891 ;;		_SYSTEM_Initialize
  4892 ;; This function uses a non-reentrant model
  4893 ;;
  4894                           
  4895     033D                     _TMR1_Initialize:	
  4896                           ;psect for function _TMR1_Initialize
  4897                           
  4898     033D                     l2140:	
  4899                           ;incstack = 0
  4900                           ; Regs used in _TMR1_Initialize: [wreg+status,2]
  4901                           
  4902                           
  4903                           ;mcc_generated_files/tmr1.c: 68:     T1GCON = 0x00;
  4904     033D  0020               	movlb	0	; select bank0
  4905     033E  0199               	clrf	25	;volatile
  4906                           
  4907                           ;mcc_generated_files/tmr1.c: 71:     TMR1H = 0x00;
  4908     033F  0197               	clrf	23	;volatile
  4909                           
  4910                           ;mcc_generated_files/tmr1.c: 74:     TMR1L = 0x00;
  4911     0340  0196               	clrf	22	;volatile
  4912     0341                     l2142:
  4913                           
  4914                           ;mcc_generated_files/tmr1.c: 77:     PIR1bits.TMR1IF = 0;
  4915     0341  1011               	bcf	17,0	;volatile
  4916     0342                     l2144:
  4917                           
  4918                           ;mcc_generated_files/tmr1.c: 80:     timer1ReloadVal=(uint16_t)((TMR1H << 8) | TMR1L);
  4919     0342  0817               	movf	23,w	;volatile
  4920     0343  00B4               	movwf	_timer1ReloadVal+1	;volatile
  4921     0344  0816               	movf	22,w	;volatile
  4922     0345  00B3               	movwf	_timer1ReloadVal	;volatile
  4923     0346                     l2146:
  4924                           
  4925                           ;mcc_generated_files/tmr1.c: 83:     T1CON = 0x01;
  4926     0346  3001               	movlw	1
  4927     0347  0098               	movwf	24	;volatile
  4928     0348                     l53:
  4929     0348  0008               	return
  4930     0349                     __end_of_TMR1_Initialize:
  4931                           
  4932                           	psect	text38
  4933     0317                     __ptext38:	
  4934 ;; *************** function _TMR0_Initialize *****************
  4935 ;; Defined at:
  4936 ;;		line 64 in file "mcc_generated_files/tmr0.c"
  4937 ;; Parameters:    Size  Location     Type
  4938 ;;		None
  4939 ;; Auto vars:     Size  Location     Type
  4940 ;;		None
  4941 ;; Return value:  Size  Location     Type
  4942 ;;                  1    wreg      void 
  4943 ;; Registers used:
  4944 ;;		wreg, status,2
  4945 ;; Tracked objects:
  4946 ;;		On entry : 0/0
  4947 ;;		On exit  : 0/0
  4948 ;;		Unchanged: 0/0
  4949 ;; Data sizes:     COMMON   BANK0   BANK1   BANK2   BANK3   BANK4   BANK5   BANK6
  4950 ;;      Params:         0       0       0       0       0       0       0       0
  4951 ;;      Locals:         0       0       0       0       0       0       0       0
  4952 ;;      Temps:          0       0       0       0       0       0       0       0
  4953 ;;      Totals:         0       0       0       0       0       0       0       0
  4954 ;;Total ram usage:        0 bytes
  4955 ;; Hardware stack levels used: 1
  4956 ;; Hardware stack levels required when called: 4
  4957 ;; This function calls:
  4958 ;;		Nothing
  4959 ;; This function is called by:
  4960 ;;		_SYSTEM_Initialize
  4961 ;; This function uses a non-reentrant model
  4962 ;;
  4963                           
  4964     0317                     _TMR0_Initialize:	
  4965                           ;psect for function _TMR0_Initialize
  4966                           
  4967     0317                     l2148:	
  4968                           ;incstack = 0
  4969                           ; Regs used in _TMR0_Initialize: [wreg+status,2]
  4970                           
  4971                           
  4972                           ;mcc_generated_files/tmr0.c: 69:     OPTION_REG = (uint8_t)((OPTION_REG & 0xC0) | (0xD4 
      +                          & 0x3F));
  4973     0317  0021               	movlb	1	; select bank1
  4974     0318  0815               	movf	21,w	;volatile
  4975     0319  39C0               	andlw	192
  4976     031A  3814               	iorlw	20
  4977     031B  0095               	movwf	21	;volatile
  4978     031C                     l2150:
  4979                           
  4980                           ;mcc_generated_files/tmr0.c: 72:     TMR0 = 0x06;
  4981     031C  3006               	movlw	6
  4982     031D  0020               	movlb	0	; select bank0
  4983     031E  0095               	movwf	21	;volatile
  4984     031F                     l2152:
  4985                           
  4986                           ;mcc_generated_files/tmr0.c: 75:     timer0ReloadVal= 6;
  4987     031F  3006               	movlw	6
  4988     0320  00F6               	movwf	_timer0ReloadVal	;volatile
  4989     0321                     l2154:
  4990                           
  4991                           ;mcc_generated_files/tmr0.c: 78:     INTCONbits.TMR0IF = 0;
  4992     0321  110B               	bcf	11,2	;volatile
  4993     0322                     l2156:
  4994                           
  4995                           ;mcc_generated_files/tmr0.c: 81:     INTCONbits.TMR0IE = 1;
  4996     0322  168B               	bsf	11,5	;volatile
  4997     0323                     l167:
  4998     0323  0008               	return
  4999     0324                     __end_of_TMR0_Initialize:
  5000                           
  5001                           	psect	text39
  5002     024D                     __ptext39:	
  5003 ;; *************** function _PIN_MANAGER_Initialize *****************
  5004 ;; Defined at:
  5005 ;;		line 55 in file "mcc_generated_files/pin_manager.c"
  5006 ;; Parameters:    Size  Location     Type
  5007 ;;		None
  5008 ;; Auto vars:     Size  Location     Type
  5009 ;;		None
  5010 ;; Return value:  Size  Location     Type
  5011 ;;                  1    wreg      void 
  5012 ;; Registers used:
  5013 ;;		wreg, status,2
  5014 ;; Tracked objects:
  5015 ;;		On entry : 0/0
  5016 ;;		On exit  : 0/0
  5017 ;;		Unchanged: 0/0
  5018 ;; Data sizes:     COMMON   BANK0   BANK1   BANK2   BANK3   BANK4   BANK5   BANK6
  5019 ;;      Params:         0       0       0       0       0       0       0       0
  5020 ;;      Locals:         0       0       0       0       0       0       0       0
  5021 ;;      Temps:          0       0       0       0       0       0       0       0
  5022 ;;      Totals:         0       0       0       0       0       0       0       0
  5023 ;;Total ram usage:        0 bytes
  5024 ;; Hardware stack levels used: 1
  5025 ;; Hardware stack levels required when called: 4
  5026 ;; This function calls:
  5027 ;;		Nothing
  5028 ;; This function is called by:
  5029 ;;		_SYSTEM_Initialize
  5030 ;; This function uses a non-reentrant model
  5031 ;;
  5032                           
  5033     024D                     _PIN_MANAGER_Initialize:	
  5034                           ;psect for function _PIN_MANAGER_Initialize
  5035                           
  5036     024D                     l2098:	
  5037                           ;incstack = 0
  5038                           ; Regs used in _PIN_MANAGER_Initialize: [wreg+status,2]
  5039                           
  5040                           
  5041                           ;mcc_generated_files/pin_manager.c: 60:     LATE = 0x00;
  5042     024D  0022               	movlb	2	; select bank2
  5043     024E  0190               	clrf	16	;volatile
  5044                           
  5045                           ;mcc_generated_files/pin_manager.c: 61:     LATA = 0x00;
  5046     024F  018C               	clrf	12	;volatile
  5047                           
  5048                           ;mcc_generated_files/pin_manager.c: 62:     LATB = 0x00;
  5049     0250  018D               	clrf	13	;volatile
  5050     0251                     l2100:
  5051                           
  5052                           ;mcc_generated_files/pin_manager.c: 63:     LATC = 0x10;
  5053     0251  3010               	movlw	16
  5054     0252  008E               	movwf	14	;volatile
  5055     0253                     l2102:
  5056                           
  5057                           ;mcc_generated_files/pin_manager.c: 68:     TRISE = 0x08;
  5058     0253  3008               	movlw	8
  5059     0254  0021               	movlb	1	; select bank1
  5060     0255  0090               	movwf	16	;volatile
  5061     0256                     l2104:
  5062                           
  5063                           ;mcc_generated_files/pin_manager.c: 69:     TRISA = 0xF1;
  5064     0256  30F1               	movlw	241
  5065     0257  008C               	movwf	12	;volatile
  5066     0258                     l2106:
  5067                           
  5068                           ;mcc_generated_files/pin_manager.c: 70:     TRISB = 0x87;
  5069     0258  3087               	movlw	135
  5070     0259  008D               	movwf	13	;volatile
  5071     025A                     l2108:
  5072                           
  5073                           ;mcc_generated_files/pin_manager.c: 71:     TRISC = 0xFF;
  5074     025A  30FF               	movlw	255
  5075     025B  008E               	movwf	14	;volatile
  5076     025C                     l2110:
  5077                           
  5078                           ;mcc_generated_files/pin_manager.c: 76:     ANSELB = 0x3F;
  5079     025C  303F               	movlw	63
  5080     025D  0023               	movlb	3	; select bank3
  5081     025E  008D               	movwf	13	;volatile
  5082     025F                     l2112:
  5083                           
  5084                           ;mcc_generated_files/pin_manager.c: 77:     ANSELA = 0x3F;
  5085     025F  303F               	movlw	63
  5086     0260  008C               	movwf	12	;volatile
  5087     0261                     l2114:
  5088                           
  5089                           ;mcc_generated_files/pin_manager.c: 82:     WPUE = 0x00;
  5090     0261  0024               	movlb	4	; select bank4
  5091     0262  0190               	clrf	16	;volatile
  5092     0263                     l2116:
  5093                           
  5094                           ;mcc_generated_files/pin_manager.c: 83:     WPUB = 0x00;
  5095     0263  018D               	clrf	13	;volatile
  5096     0264                     l2118:
  5097                           
  5098                           ;mcc_generated_files/pin_manager.c: 84:     OPTION_REGbits.nWPUEN = 1;
  5099     0264  0021               	movlb	1	; select bank1
  5100     0265  1795               	bsf	21,7	;volatile
  5101     0266                     l2120:
  5102                           
  5103                           ;mcc_generated_files/pin_manager.c: 90:     APFCON = 0x00;
  5104     0266  0022               	movlb	2	; select bank2
  5105     0267  019D               	clrf	29	;volatile
  5106     0268                     l110:
  5107     0268  0008               	return
  5108     0269                     __end_of_PIN_MANAGER_Initialize:
  5109                           
  5110                           	psect	text40
  5111     0349                     __ptext40:	
  5112 ;; *************** function _OSCILLATOR_Initialize *****************
  5113 ;; Defined at:
  5114 ;;		line 61 in file "mcc_generated_files/mcc.c"
  5115 ;; Parameters:    Size  Location     Type
  5116 ;;		None
  5117 ;; Auto vars:     Size  Location     Type
  5118 ;;		None
  5119 ;; Return value:  Size  Location     Type
  5120 ;;                  1    wreg      void 
  5121 ;; Registers used:
  5122 ;;		wreg, status,2
  5123 ;; Tracked objects:
  5124 ;;		On entry : 0/0
  5125 ;;		On exit  : 0/0
  5126 ;;		Unchanged: 0/0
  5127 ;; Data sizes:     COMMON   BANK0   BANK1   BANK2   BANK3   BANK4   BANK5   BANK6
  5128 ;;      Params:         0       0       0       0       0       0       0       0
  5129 ;;      Locals:         0       0       0       0       0       0       0       0
  5130 ;;      Temps:          0       0       0       0       0       0       0       0
  5131 ;;      Totals:         0       0       0       0       0       0       0       0
  5132 ;;Total ram usage:        0 bytes
  5133 ;; Hardware stack levels used: 1
  5134 ;; Hardware stack levels required when called: 4
  5135 ;; This function calls:
  5136 ;;		Nothing
  5137 ;; This function is called by:
  5138 ;;		_SYSTEM_Initialize
  5139 ;; This function uses a non-reentrant model
  5140 ;;
  5141                           
  5142     0349                     _OSCILLATOR_Initialize:	
  5143                           ;psect for function _OSCILLATOR_Initialize
  5144                           
  5145     0349                     l2122:	
  5146                           ;incstack = 0
  5147                           ; Regs used in _OSCILLATOR_Initialize: [wreg+status,2]
  5148                           
  5149                           
  5150                           ;mcc_generated_files/mcc.c: 64:     OSCCON = 0x70;
  5151     0349  3070               	movlw	112
  5152     034A  0021               	movlb	1	; select bank1
  5153     034B  0099               	movwf	25	;volatile
  5154     034C                     l2124:
  5155                           
  5156                           ;mcc_generated_files/mcc.c: 66:     OSCTUNE = 0x00;
  5157     034C  0198               	clrf	24	;volatile
  5158     034D                     l2126:
  5159                           
  5160                           ;mcc_generated_files/mcc.c: 68:     BORCON = 0x00;
  5161     034D  0022               	movlb	2	; select bank2
  5162     034E  0196               	clrf	22	;volatile
  5163     034F                     l28:	
  5164                           ;mcc_generated_files/mcc.c: 71:     {;mcc_generated_files/mcc.c: 72:     }
  5165                           
  5166                           
  5167                           ;mcc_generated_files/mcc.c: 70:     while(PLLR == 0)
  5168     034F  0021               	movlb	1	; select bank1
  5169     0350  1F1A               	btfss	26,6	;volatile
  5170     0351  2B53               	goto	u851
  5171     0352  2B54               	goto	u850
  5172     0353                     u851:
  5173     0353  2B4F               	goto	l28
  5174     0354                     u850:
  5175     0354                     l31:
  5176     0354  0008               	return
  5177     0355                     __end_of_OSCILLATOR_Initialize:
  5178                           
  5179                           	psect	text41
  5180     0355                     __ptext41:	
  5181 ;; *************** function _ECCP3_Initialize *****************
  5182 ;; Defined at:
  5183 ;;		line 61 in file "mcc_generated_files/eccp3.c"
  5184 ;; Parameters:    Size  Location     Type
  5185 ;;		None
  5186 ;; Auto vars:     Size  Location     Type
  5187 ;;		None
  5188 ;; Return value:  Size  Location     Type
  5189 ;;                  1    wreg      void 
  5190 ;; Registers used:
  5191 ;;		wreg, status,2
  5192 ;; Tracked objects:
  5193 ;;		On entry : 0/0
  5194 ;;		On exit  : 0/0
  5195 ;;		Unchanged: 0/0
  5196 ;; Data sizes:     COMMON   BANK0   BANK1   BANK2   BANK3   BANK4   BANK5   BANK6
  5197 ;;      Params:         0       0       0       0       0       0       0       0
  5198 ;;      Locals:         0       0       0       0       0       0       0       0
  5199 ;;      Temps:          0       0       0       0       0       0       0       0
  5200 ;;      Totals:         0       0       0       0       0       0       0       0
  5201 ;;Total ram usage:        0 bytes
  5202 ;; Hardware stack levels used: 1
  5203 ;; Hardware stack levels required when called: 4
  5204 ;; This function calls:
  5205 ;;		Nothing
  5206 ;; This function is called by:
  5207 ;;		_SYSTEM_Initialize
  5208 ;; This function uses a non-reentrant model
  5209 ;;
  5210                           
  5211     0355                     _ECCP3_Initialize:	
  5212                           ;psect for function _ECCP3_Initialize
  5213                           
  5214     0355                     l2130:	
  5215                           ;incstack = 0
  5216                           ; Regs used in _ECCP3_Initialize: [wreg+status,2]
  5217                           
  5218                           
  5219                           ;mcc_generated_files/eccp3.c: 66:  CCP3CON = 0x04;
  5220     0355  3004               	movlw	4
  5221     0356  0026               	movlb	6	; select bank6
  5222     0357  0093               	movwf	19	;volatile
  5223     0358                     l2132:
  5224                           
  5225                           ;mcc_generated_files/eccp3.c: 69:  CCPR3H = 0x00;
  5226     0358  0192               	clrf	18	;volatile
  5227     0359                     l2134:
  5228                           
  5229                           ;mcc_generated_files/eccp3.c: 72:  CCPR3L = 0x00;
  5230     0359  0191               	clrf	17	;volatile
  5231     035A                     l2136:
  5232                           
  5233                           ;mcc_generated_files/eccp3.c: 75:     PIR3bits.CCP3IF = 0;
  5234     035A  0020               	movlb	0	; select bank0
  5235     035B  1213               	bcf	19,4	;volatile
  5236     035C                     l2138:
  5237                           
  5238                           ;mcc_generated_files/eccp3.c: 78:     PIE3bits.CCP3IE = 1;
  5239     035C  0021               	movlb	1	; select bank1
  5240     035D  1613               	bsf	19,4	;volatile
  5241     035E                     l149:
  5242     035E  0008               	return
  5243     035F                     __end_of_ECCP3_Initialize:
  5244                           
  5245                           	psect	intentry
  5246     0004                     __pintentry:	
  5247 ;; *************** function _INTERRUPT_InterruptManager *****************
  5248 ;; Defined at:
  5249 ;;		line 52 in file "mcc_generated_files/interrupt_manager.c"
  5250 ;; Parameters:    Size  Location     Type
  5251 ;;		None
  5252 ;; Auto vars:     Size  Location     Type
  5253 ;;		None
  5254 ;; Return value:  Size  Location     Type
  5255 ;;                  1    wreg      void 
  5256 ;; Registers used:
  5257 ;;		wreg, status,2, status,0, pclath, cstack
  5258 ;; Tracked objects:
  5259 ;;		On entry : 0/0
  5260 ;;		On exit  : 0/0
  5261 ;;		Unchanged: 0/0
  5262 ;; Data sizes:     COMMON   BANK0   BANK1   BANK2   BANK3   BANK4   BANK5   BANK6
  5263 ;;      Params:         0       0       0       0       0       0       0       0
  5264 ;;      Locals:         0       0       0       0       0       0       0       0
  5265 ;;      Temps:          0       0       0       0       0       0       0       0
  5266 ;;      Totals:         0       0       0       0       0       0       0       0
  5267 ;;Total ram usage:        0 bytes
  5268 ;; Hardware stack levels used: 1
  5269 ;; Hardware stack levels required when called: 3
  5270 ;; This function calls:
  5271 ;;		_ECCP3_CaptureISR
  5272 ;;		_TMR0_ISR
  5273 ;; This function is called by:
  5274 ;;		Interrupt level 1
  5275 ;; This function uses a non-reentrant model
  5276 ;;
  5277                           
  5278     0004                     _INTERRUPT_InterruptManager:
  5279                           
  5280                           ;incstack = 0
  5281     0004  147E               	bsf	int$flags,0	;set compiler interrupt flag (level 1)
  5282                           
  5283                           ; Regs used in _INTERRUPT_InterruptManager: [wreg+status,2+status,0+pclath+cstack]
  5284     0005  3180               	pagesel	$
  5285     0006                     i1l1966:
  5286                           
  5287                           ;mcc_generated_files/interrupt_manager.c: 55:     if(INTCONbits.TMR0IE == 1 && INTCONbit
      +                          s.TMR0IF == 1)
  5288     0006  1E8B               	btfss	11,5	;volatile
  5289     0007  2809               	goto	u79_21
  5290     0008  280A               	goto	u79_20
  5291     0009                     u79_21:
  5292     0009  2812               	goto	i1l128
  5293     000A                     u79_20:
  5294     000A                     i1l1968:
  5295     000A  1D0B               	btfss	11,2	;volatile
  5296     000B  280D               	goto	u80_21
  5297     000C  280E               	goto	u80_20
  5298     000D                     u80_21:
  5299     000D  2812               	goto	i1l128
  5300     000E                     u80_20:
  5301     000E                     i1l1970:
  5302                           
  5303                           ;mcc_generated_files/interrupt_manager.c: 56:     {;mcc_generated_files/interrupt_manage
      +                          r.c: 57:         TMR0_ISR();
  5304     000E  3182  2269  3180   	fcall	_TMR0_ISR
  5305                           
  5306                           ;mcc_generated_files/interrupt_manager.c: 58:     }
  5307     0011  2824               	goto	i1l134
  5308     0012                     i1l128:	
  5309                           ;mcc_generated_files/interrupt_manager.c: 59:     else if(INTCONbits.PEIE == 1)
  5310                           
  5311     0012  1F0B               	btfss	11,6	;volatile
  5312     0013  2815               	goto	u81_21
  5313     0014  2816               	goto	u81_20
  5314     0015                     u81_21:
  5315     0015  2824               	goto	i1l134
  5316     0016                     u81_20:
  5317     0016                     i1l1972:
  5318                           
  5319                           ;mcc_generated_files/interrupt_manager.c: 60:     {;mcc_generated_files/interrupt_manage
      +                          r.c: 61:         if(PIE3bits.CCP3IE == 1 && PIR3bits.CCP3IF == 1)
  5320     0016  0021               	movlb	1	; select bank1
  5321     0017  1E13               	btfss	19,4	;volatile
  5322     0018  281A               	goto	u82_21
  5323     0019  281B               	goto	u82_20
  5324     001A                     u82_21:
  5325     001A  2824               	goto	i1l133
  5326     001B                     u82_20:
  5327     001B                     i1l1974:
  5328     001B  0020               	movlb	0	; select bank0
  5329     001C  1E13               	btfss	19,4	;volatile
  5330     001D  281F               	goto	u83_21
  5331     001E  2820               	goto	u83_20
  5332     001F                     u83_21:
  5333     001F  2824               	goto	i1l133
  5334     0020                     u83_20:
  5335     0020                     i1l1976:
  5336                           
  5337                           ;mcc_generated_files/interrupt_manager.c: 62:         {;mcc_generated_files/interrupt_ma
      +                          nager.c: 63:             ECCP3_CaptureISR();
  5338     0020  3182  22FA  3180   	fcall	_ECCP3_CaptureISR
  5339                           
  5340                           ;mcc_generated_files/interrupt_manager.c: 64:         }
  5341     0023  2824               	goto	i1l134
  5342     0024                     i1l133:	
  5343                           ;mcc_generated_files/interrupt_manager.c: 71:     {;mcc_generated_files/interrupt_manage
      +                          r.c: 73:     }
  5344                           
  5345     0024                     i1l134:
  5346     0024  107E               	bcf	int$flags,0	;clear compiler interrupt flag (level 1)
  5347     0025  0009               	retfie
  5348     0026                     __end_of_INTERRUPT_InterruptManager:
  5349                           
  5350                           	psect	text43
  5351     0269                     __ptext43:	
  5352 ;; *************** function _TMR0_ISR *****************
  5353 ;; Defined at:
  5354 ;;		line 108 in file "mcc_generated_files/tmr0.c"
  5355 ;; Parameters:    Size  Location     Type
  5356 ;;		None
  5357 ;; Auto vars:     Size  Location     Type
  5358 ;;		None
  5359 ;; Return value:  Size  Location     Type
  5360 ;;                  1    wreg      void 
  5361 ;; Registers used:
  5362 ;;		wreg, status,2, status,0, pclath, cstack
  5363 ;; Tracked objects:
  5364 ;;		On entry : 0/0
  5365 ;;		On exit  : 0/0
  5366 ;;		Unchanged: 0/0
  5367 ;; Data sizes:     COMMON   BANK0   BANK1   BANK2   BANK3   BANK4   BANK5   BANK6
  5368 ;;      Params:         0       0       0       0       0       0       0       0
  5369 ;;      Locals:         0       0       0       0       0       0       0       0
  5370 ;;      Temps:          0       0       0       0       0       0       0       0
  5371 ;;      Totals:         0       0       0       0       0       0       0       0
  5372 ;;Total ram usage:        0 bytes
  5373 ;; Hardware stack levels used: 1
  5374 ;; Hardware stack levels required when called: 2
  5375 ;; This function calls:
  5376 ;;		_TMR0_CallBack
  5377 ;; This function is called by:
  5378 ;;		_INTERRUPT_InterruptManager
  5379 ;; This function uses a non-reentrant model
  5380 ;;
  5381                           
  5382     0269                     _TMR0_ISR:	
  5383                           ;psect for function _TMR0_ISR
  5384                           
  5385     0269                     i1l1926:	
  5386                           ;incstack = 0
  5387                           ; Regs used in _TMR0_ISR: [wreg+status,2+status,0+pclath+cstack]
  5388                           
  5389                           
  5390                           ;mcc_generated_files/tmr0.c: 110:     static volatile uint16_t CountCallBack = 0;;mcc_ge
      +                          nerated_files/tmr0.c: 113:     INTCONbits.TMR0IF = 0;
  5391     0269  110B               	bcf	11,2	;volatile
  5392     026A                     i1l1928:
  5393                           
  5394                           ;mcc_generated_files/tmr0.c: 115:     TMR0 = timer0ReloadVal;
  5395     026A  0876               	movf	_timer0ReloadVal,w	;volatile
  5396     026B  0020               	movlb	0	; select bank0
  5397     026C  0095               	movwf	21	;volatile
  5398                           
  5399                           ;mcc_generated_files/tmr0.c: 118:     if (++CountCallBack >= 10)
  5400     026D  3001               	movlw	1
  5401     026E  07AF               	addwf	TMR0_ISR@CountCallBack,f	;volatile
  5402     026F  3000               	movlw	0
  5403     0270  3DB0               	addwfc	TMR0_ISR@CountCallBack+1,f	;volatile
  5404     0271  3000               	movlw	0
  5405     0272  0230               	subwf	TMR0_ISR@CountCallBack+1,w	;volatile
  5406     0273  300A               	movlw	10
  5407     0274  1903               	skipnz
  5408     0275  022F               	subwf	TMR0_ISR@CountCallBack,w	;volatile
  5409     0276  1C03               	skipc
  5410     0277  2A79               	goto	u78_21
  5411     0278  2A7A               	goto	u78_20
  5412     0279                     u78_21:
  5413     0279  2A80               	goto	i1l182
  5414     027A                     u78_20:
  5415     027A                     i1l1930:
  5416                           
  5417                           ;mcc_generated_files/tmr0.c: 119:     {;mcc_generated_files/tmr0.c: 121:         TMR0_Ca
      +                          llBack();
  5418     027A  3183  2324  3182   	fcall	_TMR0_CallBack
  5419     027D                     i1l1932:
  5420                           
  5421                           ;mcc_generated_files/tmr0.c: 124:         CountCallBack = 0;
  5422     027D  0020               	movlb	0	; select bank0
  5423     027E  01AF               	clrf	TMR0_ISR@CountCallBack	;volatile
  5424     027F  01B0               	clrf	TMR0_ISR@CountCallBack+1	;volatile
  5425     0280                     i1l182:
  5426     0280  0008               	return
  5427     0281                     __end_of_TMR0_ISR:
  5428                           
  5429                           	psect	text44
  5430     0324                     __ptext44:	
  5431 ;; *************** function _TMR0_CallBack *****************
  5432 ;; Defined at:
  5433 ;;		line 130 in file "mcc_generated_files/tmr0.c"
  5434 ;; Parameters:    Size  Location     Type
  5435 ;;		None
  5436 ;; Auto vars:     Size  Location     Type
  5437 ;;		None
  5438 ;; Return value:  Size  Location     Type
  5439 ;;                  1    wreg      void 
  5440 ;; Registers used:
  5441 ;;		wreg, status,2, status,0, pclath, cstack
  5442 ;; Tracked objects:
  5443 ;;		On entry : 0/0
  5444 ;;		On exit  : 0/0
  5445 ;;		Unchanged: 0/0
  5446 ;; Data sizes:     COMMON   BANK0   BANK1   BANK2   BANK3   BANK4   BANK5   BANK6
  5447 ;;      Params:         0       0       0       0       0       0       0       0
  5448 ;;      Locals:         0       0       0       0       0       0       0       0
  5449 ;;      Temps:          0       0       0       0       0       0       0       0
  5450 ;;      Totals:         0       0       0       0       0       0       0       0
  5451 ;;Total ram usage:        0 bytes
  5452 ;; Hardware stack levels used: 1
  5453 ;; Hardware stack levels required when called: 1
  5454 ;; This function calls:
  5455 ;;		NULL
  5456 ;;		_TMR0_10MS_Even
  5457 ;; This function is called by:
  5458 ;;		_TMR0_ISR
  5459 ;; This function uses a non-reentrant model
  5460 ;;
  5461                           
  5462     0324                     _TMR0_CallBack:	
  5463                           ;psect for function _TMR0_CallBack
  5464                           
  5465     0324                     i1l1714:	
  5466                           ;incstack = 0
  5467                           ; Regs used in _TMR0_CallBack: [wreg+status,2+status,0+pclath+cstack]
  5468                           
  5469                           
  5470                           ;mcc_generated_files/tmr0.c: 134:     if(TMR0_InterruptHandler)
  5471     0324  0020               	movlb	0	; select bank0
  5472     0325  0831               	movf	_TMR0_InterruptHandler,w
  5473     0326  0432               	iorwf	_TMR0_InterruptHandler+1,w
  5474     0327  1903               	btfsc	3,2
  5475     0328  2B2A               	goto	u55_21
  5476     0329  2B2B               	goto	u55_20
  5477     032A                     u55_21:
  5478     032A  2B30               	goto	i1l186
  5479     032B                     u55_20:
  5480     032B                     i1l1716:
  5481                           
  5482                           ;mcc_generated_files/tmr0.c: 135:     {;mcc_generated_files/tmr0.c: 136:         TMR0_In
      +                          terruptHandler();
  5483     032B  0832               	movf	_TMR0_InterruptHandler+1,w
  5484     032C  008A               	movwf	10
  5485     032D  0831               	movf	_TMR0_InterruptHandler,w
  5486     032E  000A               	callw
  5487     032F  3183               	pagesel	$
  5488     0330                     i1l186:
  5489     0330  0008               	return
  5490     0331                     __end_of_TMR0_CallBack:
  5491                           
  5492                           	psect	text45
  5493     02EB                     __ptext45:	
  5494 ;; *************** function _TMR0_10MS_Even *****************
  5495 ;; Defined at:
  5496 ;;		line 501 in file "tundra.c"
  5497 ;; Parameters:    Size  Location     Type
  5498 ;;		None
  5499 ;; Auto vars:     Size  Location     Type
  5500 ;;		None
  5501 ;; Return value:  Size  Location     Type
  5502 ;;                  1    wreg      void 
  5503 ;; Registers used:
  5504 ;;		wreg, status,2, status,0
  5505 ;; Tracked objects:
  5506 ;;		On entry : 0/0
  5507 ;;		On exit  : 0/0
  5508 ;;		Unchanged: 0/0
  5509 ;; Data sizes:     COMMON   BANK0   BANK1   BANK2   BANK3   BANK4   BANK5   BANK6
  5510 ;;      Params:         0       0       0       0       0       0       0       0
  5511 ;;      Locals:         0       0       0       0       0       0       0       0
  5512 ;;      Temps:          1       0       0       0       0       0       0       0
  5513 ;;      Totals:         1       0       0       0       0       0       0       0
  5514 ;;Total ram usage:        1 bytes
  5515 ;; Hardware stack levels used: 1
  5516 ;; This function calls:
  5517 ;;		Nothing
  5518 ;; This function is called by:
  5519 ;;		_sofaware_initialize
  5520 ;;		_TMR0_CallBack
  5521 ;; This function uses a non-reentrant model
  5522 ;;
  5523                           
  5524     02EB                     _TMR0_10MS_Even:	
  5525                           ;psect for function _TMR0_10MS_Even
  5526                           
  5527     02EB                     i1l1646:	
  5528                           ;incstack = 0
  5529                           ; Regs used in _TMR0_10MS_Even: [wreg+status,2+status,0]
  5530                           
  5531                           
  5532                           ;tundra.c: 502:   Communication_timer++;
  5533     02EB  3001               	movlw	1
  5534     02EC  00F7               	movwf	??_TMR0_10MS_Even
  5535     02ED  0877               	movf	??_TMR0_10MS_Even,w
  5536     02EE  0020               	movlb	0	; select bank0
  5537     02EF  07BD               	addwf	_Communication_timer,f	;volatile
  5538     02F0                     i1l1648:
  5539                           
  5540                           ;tundra.c: 503:   if (Communication_timer >= 200) {
  5541     02F0  30C8               	movlw	200
  5542     02F1  023D               	subwf	_Communication_timer,w	;volatile
  5543     02F2  1C03               	skipc
  5544     02F3  2AF5               	goto	u44_21
  5545     02F4  2AF6               	goto	u44_20
  5546     02F5                     u44_21:
  5547     02F5  2AF9               	goto	i1l473
  5548     02F6                     u44_20:
  5549     02F6                     i1l1650:
  5550                           
  5551                           ;tundra.c: 504:     eLamp_even = eEVEN_SIGNAL_TIMEOUT;
  5552     02F6  3002               	movlw	2
  5553     02F7  00BB               	movwf	_eLamp_even
  5554     02F8                     i1l1652:
  5555                           
  5556                           ;tundra.c: 505:     Communication_timer = 0;
  5557     02F8  01BD               	clrf	_Communication_timer	;volatile
  5558     02F9                     i1l473:
  5559     02F9  0008               	return
  5560     02FA                     __end_of_TMR0_10MS_Even:
  5561                           
  5562                           	psect	text46
  5563     02FA                     __ptext46:	
  5564 ;; *************** function _ECCP3_CaptureISR *****************
  5565 ;; Defined at:
  5566 ;;		line 82 in file "mcc_generated_files/eccp3.c"
  5567 ;; Parameters:    Size  Location     Type
  5568 ;;		None
  5569 ;; Auto vars:     Size  Location     Type
  5570 ;;  module          2    5[COMMON] struct CCPR3Reg_tag
  5571 ;; Return value:  Size  Location     Type
  5572 ;;                  1    wreg      void 
  5573 ;; Registers used:
  5574 ;;		wreg, status,2, status,0, pclath, cstack
  5575 ;; Tracked objects:
  5576 ;;		On entry : 0/0
  5577 ;;		On exit  : 0/0
  5578 ;;		Unchanged: 0/0
  5579 ;; Data sizes:     COMMON   BANK0   BANK1   BANK2   BANK3   BANK4   BANK5   BANK6
  5580 ;;      Params:         0       0       0       0       0       0       0       0
  5581 ;;      Locals:         2       0       0       0       0       0       0       0
  5582 ;;      Temps:          0       0       0       0       0       0       0       0
  5583 ;;      Totals:         2       0       0       0       0       0       0       0
  5584 ;;Total ram usage:        2 bytes
  5585 ;; Hardware stack levels used: 1
  5586 ;; Hardware stack levels required when called: 1
  5587 ;; This function calls:
  5588 ;;		_ECCP3_CallBack
  5589 ;; This function is called by:
  5590 ;;		_INTERRUPT_InterruptManager
  5591 ;; This function uses a non-reentrant model
  5592 ;;
  5593                           
  5594     02FA                     _ECCP3_CaptureISR:	
  5595                           ;psect for function _ECCP3_CaptureISR
  5596                           
  5597     02FA                     i1l1934:	
  5598                           ;incstack = 0
  5599                           ; Regs used in _ECCP3_CaptureISR: [wreg+status,2+status,0+pclath+cstack]
  5600                           
  5601                           
  5602                           ;mcc_generated_files/eccp3.c: 84:     CCP3_PERIOD_REG_T module;;mcc_generated_files/eccp
      +                          3.c: 87:     PIR3bits.CCP3IF = 0;
  5603     02FA  0020               	movlb	0	; select bank0
  5604     02FB  1213               	bcf	19,4	;volatile
  5605     02FC                     i1l1936:
  5606                           
  5607                           ;mcc_generated_files/eccp3.c: 90:     module.ccpr3l = CCPR3L;
  5608     02FC  0026               	movlb	6	; select bank6
  5609     02FD  0811               	movf	17,w	;volatile
  5610     02FE  00FC               	movwf	ECCP3_CaptureISR@module
  5611                           
  5612                           ;mcc_generated_files/eccp3.c: 91:     module.ccpr3h = CCPR3H;
  5613     02FF  0812               	movf	18,w	;volatile
  5614     0300  00FD               	movwf	ECCP3_CaptureISR@module+1
  5615     0301                     i1l1938:
  5616                           
  5617                           ;mcc_generated_files/eccp3.c: 94:     ECCP3_CallBack(module.ccpr3_16Bit);
  5618     0301  087D               	movf	ECCP3_CaptureISR@module+1,w
  5619     0302  00F8               	movwf	ECCP3_CallBack@capturedValue+1
  5620     0303  087C               	movf	ECCP3_CaptureISR@module,w
  5621     0304  00F7               	movwf	ECCP3_CallBack@capturedValue
  5622     0305  3180  203F  3182   	fcall	_ECCP3_CallBack
  5623     0308                     i1l152:
  5624     0308  0008               	return
  5625     0309                     __end_of_ECCP3_CaptureISR:
  5626                           
  5627                           	psect	text47
  5628     003F                     __ptext47:	
  5629 ;; *************** function _ECCP3_CallBack *****************
  5630 ;; Defined at:
  5631 ;;		line 396 in file "tundra.c"
  5632 ;; Parameters:    Size  Location     Type
  5633 ;;  capturedValu    2    0[COMMON] unsigned short 
  5634 ;; Auto vars:     Size  Location     Type
  5635 ;;  fUART_TX        1    4[COMMON] _Bool 
  5636 ;; Return value:  Size  Location     Type
  5637 ;;                  1    wreg      void 
  5638 ;; Registers used:
  5639 ;;		wreg, status,2, status,0
  5640 ;; Tracked objects:
  5641 ;;		On entry : 0/0
  5642 ;;		On exit  : 0/0
  5643 ;;		Unchanged: 0/0
  5644 ;; Data sizes:     COMMON   BANK0   BANK1   BANK2   BANK3   BANK4   BANK5   BANK6
  5645 ;;      Params:         2       0       0       0       0       0       0       0
  5646 ;;      Locals:         1       0       0       0       0       0       0       0
  5647 ;;      Temps:          2       0       0       0       0       0       0       0
  5648 ;;      Totals:         5       0       0       0       0       0       0       0
  5649 ;;Total ram usage:        5 bytes
  5650 ;; Hardware stack levels used: 1
  5651 ;; This function calls:
  5652 ;;		Nothing
  5653 ;; This function is called by:
  5654 ;;		_ECCP3_CaptureISR
  5655 ;; This function uses a non-reentrant model
  5656 ;;
  5657                           
  5658     003F                     _ECCP3_CallBack:	
  5659                           ;psect for function _ECCP3_CallBack
  5660                           
  5661     003F                     i1l1662:	
  5662                           ;incstack = 0
  5663                           ; Regs used in _ECCP3_CallBack: [wreg+status,2+status,0]
  5664                           
  5665     003F                     i1l1664:
  5666     003F  3004               	movlw	4
  5667     0040  0026               	movlb	6	; select bank6
  5668     0041  0613               	xorwf	19,w	;volatile
  5669     0042  1D03               	btfss	3,2
  5670     0043  2845               	goto	u45_21
  5671     0044  2846               	goto	u45_20
  5672     0045                     u45_21:
  5673     0045  28BA               	goto	i1l1704
  5674     0046                     u45_20:
  5675     0046                     i1l1666:
  5676                           
  5677                           ;tundra.c: 411:     falling_edge_time = capturedValue;
  5678     0046  0878               	movf	ECCP3_CallBack@capturedValue+1,w
  5679     0047  00F3               	movwf	ECCP3_CallBack@falling_edge_time+1
  5680     0048  0877               	movf	ECCP3_CallBack@capturedValue,w
  5681     0049  00F2               	movwf	ECCP3_CallBack@falling_edge_time
  5682     004A  3005               	movlw	5
  5683     004B  0093               	movwf	19	;volatile
  5684     004C                     i1l1668:
  5685                           
  5686                           ;tundra.c: 413:     if (fRise_edge) {
  5687     004C  0020               	movlb	0	; select bank0
  5688     004D  0836               	movf	ECCP3_CallBack@fRise_edge,w
  5689     004E  1903               	btfsc	3,2
  5690     004F  2851               	goto	u46_21
  5691     0050  2852               	goto	u46_20
  5692     0051                     u46_21:
  5693     0051  28CF               	goto	i1l466
  5694     0052                     u46_20:
  5695     0052                     i1l1670:
  5696                           
  5697                           ;tundra.c: 414:       fRise_edge = 0;
  5698     0052  01B6               	clrf	ECCP3_CallBack@fRise_edge
  5699     0053                     i1l1674:
  5700                           
  5701                           ;tundra.c: 417:         positive_pulse_width = falling_edge_time - rising_edge_time;
  5702     0053  0870               	movf	ECCP3_CallBack@rising_edge_time,w
  5703     0054  0272               	subwf	ECCP3_CallBack@falling_edge_time,w
  5704     0055  00AB               	movwf	ECCP3_CallBack@positive_pulse_width
  5705     0056  0871               	movf	ECCP3_CallBack@rising_edge_time+1,w
  5706     0057  3B73               	subwfb	ECCP3_CallBack@falling_edge_time+1,w
  5707     0058  00AC               	movwf	ECCP3_CallBack@positive_pulse_width+1
  5708     0059                     i1l453:	
  5709                           ;tundra.c: 421:       }
  5710                           
  5711                           
  5712                           ;tundra.c: 423:       negative_pulse_width_us = (positive_pulse_width >> 3) & 0xff;
  5713     0059  082C               	movf	ECCP3_CallBack@positive_pulse_width+1,w
  5714     005A  00FA               	movwf	??_ECCP3_CallBack+1
  5715     005B  082B               	movf	ECCP3_CallBack@positive_pulse_width,w
  5716     005C  00F9               	movwf	??_ECCP3_CallBack
  5717     005D  36FA               	lsrf	??_ECCP3_CallBack+1,f
  5718     005E  0CF9               	rrf	??_ECCP3_CallBack,f
  5719     005F  36FA               	lsrf	??_ECCP3_CallBack+1,f
  5720     0060  0CF9               	rrf	??_ECCP3_CallBack,f
  5721     0061  36FA               	lsrf	??_ECCP3_CallBack+1,f
  5722     0062  0CF9               	rrf	??_ECCP3_CallBack,f
  5723     0063  0879               	movf	??_ECCP3_CallBack,w
  5724     0064  00B8               	movwf	ECCP3_CallBack@negative_pulse_width_us
  5725                           
  5726                           ;tundra.c: 424:       positive_pulse_width_us = (negative_pulse_width >> 3) & 0xff;
  5727     0065  082E               	movf	ECCP3_CallBack@negative_pulse_width+1,w
  5728     0066  00FA               	movwf	??_ECCP3_CallBack+1
  5729     0067  082D               	movf	ECCP3_CallBack@negative_pulse_width,w
  5730     0068  00F9               	movwf	??_ECCP3_CallBack
  5731     0069  36FA               	lsrf	??_ECCP3_CallBack+1,f
  5732     006A  0CF9               	rrf	??_ECCP3_CallBack,f
  5733     006B  36FA               	lsrf	??_ECCP3_CallBack+1,f
  5734     006C  0CF9               	rrf	??_ECCP3_CallBack,f
  5735     006D  36FA               	lsrf	??_ECCP3_CallBack+1,f
  5736     006E  0CF9               	rrf	??_ECCP3_CallBack,f
  5737     006F  0879               	movf	??_ECCP3_CallBack,w
  5738     0070  00B9               	movwf	ECCP3_CallBack@positive_pulse_width_us
  5739     0071                     i1l1678:
  5740     0071  301A               	movlw	26
  5741     0072  0239               	subwf	ECCP3_CallBack@positive_pulse_width_us,w
  5742     0073  1C03               	skipc
  5743     0074  2876               	goto	u47_21
  5744     0075  2877               	goto	u47_20
  5745     0076                     u47_21:
  5746     0076  287B               	goto	i1l454
  5747     0077                     u47_20:
  5748     0077                     i1l1680:
  5749                           
  5750                           ;tundra.c: 428:         LATBbits.LATB6 = 0;
  5751     0077  0022               	movlb	2	; select bank2
  5752     0078  130D               	bcf	13,6	;volatile
  5753     0079                     i1l1682:
  5754                           
  5755                           ;tundra.c: 429:         fUART_TX=0;
  5756     0079  01FB               	clrf	ECCP3_CallBack@fUART_TX
  5757                           
  5758                           ;tundra.c: 430:       } else {
  5759     007A  287F               	goto	i1l1684
  5760     007B                     i1l454:
  5761                           
  5762                           ;tundra.c: 431:         LATBbits.LATB6 = 1;
  5763     007B  0022               	movlb	2	; select bank2
  5764     007C  170D               	bsf	13,6	;volatile
  5765                           
  5766                           ;tundra.c: 432:         fUART_TX=1;
  5767     007D  01FB               	clrf	ECCP3_CallBack@fUART_TX
  5768     007E  0AFB               	incf	ECCP3_CallBack@fUART_TX,f
  5769     007F                     i1l1684:
  5770                           
  5771                           ;tundra.c: 449:       if (!fStart_bit) {
  5772     007F  0020               	movlb	0	; select bank0
  5773     0080  0835               	movf	ECCP3_CallBack@fStart_bit,w
  5774     0081  1D03               	btfss	3,2
  5775     0082  2884               	goto	u48_21
  5776     0083  2885               	goto	u48_20
  5777     0084                     u48_21:
  5778     0084  288E               	goto	i1l1692
  5779     0085                     u48_20:
  5780     0085                     i1l1686:
  5781                           
  5782                           ;tundra.c: 452:         if (!fUART_TX) {
  5783     0085  087B               	movf	ECCP3_CallBack@fUART_TX,w
  5784     0086  1D03               	btfss	3,2
  5785     0087  2889               	goto	u49_21
  5786     0088  288A               	goto	u49_20
  5787     0089                     u49_21:
  5788     0089  28B9               	goto	i1l451
  5789     008A                     u49_20:
  5790     008A                     i1l1688:
  5791                           
  5792                           ;tundra.c: 454:           fStart_bit = 1;
  5793     008A  01B5               	clrf	ECCP3_CallBack@fStart_bit
  5794     008B  0AB5               	incf	ECCP3_CallBack@fStart_bit,f
  5795     008C                     i1l1690:
  5796                           
  5797                           ;tundra.c: 455:           bit_cnt = 0;
  5798     008C  01F4               	clrf	ECCP3_CallBack@bit_cnt
  5799     008D  28CF               	goto	i1l466
  5800     008E                     i1l1692:
  5801                           
  5802                           ;tundra.c: 460:         if (!fUART_TX) {
  5803     008E  087B               	movf	ECCP3_CallBack@fUART_TX,w
  5804     008F  1D03               	btfss	3,2
  5805     0090  2892               	goto	u50_21
  5806     0091  2893               	goto	u50_20
  5807     0092                     u50_21:
  5808     0092  28A0               	goto	i1l1696
  5809     0093                     u50_20:
  5810     0093                     i1l1694:
  5811                           
  5812                           ;tundra.c: 462:           rx_data &= ~(1 << bit_cnt);
  5813     0093  3001               	movlw	1
  5814     0094  00F9               	movwf	??_ECCP3_CallBack
  5815     0095  0A74               	incf	ECCP3_CallBack@bit_cnt,w
  5816     0096  2898               	goto	u51_24
  5817     0097                     u51_25:
  5818     0097  35F9               	lslf	??_ECCP3_CallBack,f
  5819     0098                     u51_24:
  5820     0098  0B89               	decfsz	9,f
  5821     0099  2897               	goto	u51_25
  5822     009A  0879               	movf	??_ECCP3_CallBack,w
  5823     009B  3AFF               	xorlw	255
  5824     009C  00FA               	movwf	??_ECCP3_CallBack+1
  5825     009D  087A               	movf	??_ECCP3_CallBack+1,w
  5826     009E  05F5               	andwf	_rx_data,f
  5827                           
  5828                           ;tundra.c: 463:         } else {
  5829     009F  28AB               	goto	i1l460
  5830     00A0                     i1l1696:
  5831                           
  5832                           ;tundra.c: 465:           rx_data |= (1 << bit_cnt);
  5833     00A0  3001               	movlw	1
  5834     00A1  00F9               	movwf	??_ECCP3_CallBack
  5835     00A2  0A74               	incf	ECCP3_CallBack@bit_cnt,w
  5836     00A3  28A5               	goto	u52_24
  5837     00A4                     u52_25:
  5838     00A4  35F9               	lslf	??_ECCP3_CallBack,f
  5839     00A5                     u52_24:
  5840     00A5  0B89               	decfsz	9,f
  5841     00A6  28A4               	goto	u52_25
  5842     00A7  0879               	movf	??_ECCP3_CallBack,w
  5843     00A8  00FA               	movwf	??_ECCP3_CallBack+1
  5844     00A9  087A               	movf	??_ECCP3_CallBack+1,w
  5845     00AA  04F5               	iorwf	_rx_data,f
  5846     00AB                     i1l460:	
  5847                           ;tundra.c: 466:         }
  5848                           
  5849                           
  5850                           ;tundra.c: 468:         bit_cnt++;
  5851     00AB  3001               	movlw	1
  5852     00AC  00F9               	movwf	??_ECCP3_CallBack
  5853     00AD  0879               	movf	??_ECCP3_CallBack,w
  5854     00AE  07F4               	addwf	ECCP3_CallBack@bit_cnt,f
  5855     00AF                     i1l1698:
  5856     00AF  3008               	movlw	8
  5857     00B0  0274               	subwf	ECCP3_CallBack@bit_cnt,w
  5858     00B1  1C03               	skipc
  5859     00B2  28B4               	goto	u53_21
  5860     00B3  28B5               	goto	u53_20
  5861     00B4                     u53_21:
  5862     00B4  28B9               	goto	i1l451
  5863     00B5                     u53_20:
  5864     00B5                     i1l1700:
  5865                           
  5866                           ;tundra.c: 471:           fStart_bit = 0;
  5867     00B5  01B5               	clrf	ECCP3_CallBack@fStart_bit
  5868     00B6                     i1l1702:
  5869                           
  5870                           ;tundra.c: 472:           fReceiver_Byte = 1;
  5871     00B6  3001               	movlw	1
  5872     00B7  00BF               	movwf	_fReceiver_Byte	;volatile
  5873     00B8  28CF               	goto	i1l466
  5874     00B9                     i1l451:	
  5875                           ;tundra.c: 475:     }
  5876                           
  5877                           
  5878                           ;tundra.c: 477:   }
  5879     00B9  28CF               	goto	i1l466
  5880     00BA                     i1l1704:
  5881     00BA  3005               	movlw	5
  5882     00BB  0613               	xorwf	19,w	;volatile
  5883     00BC  1D03               	btfss	3,2
  5884     00BD  28BF               	goto	u54_21
  5885     00BE  28C0               	goto	u54_20
  5886     00BF                     u54_21:
  5887     00BF  28CF               	goto	i1l466
  5888     00C0                     u54_20:
  5889     00C0                     i1l1706:
  5890                           
  5891                           ;tundra.c: 480:     rising_edge_time = capturedValue;
  5892     00C0  0878               	movf	ECCP3_CallBack@capturedValue+1,w
  5893     00C1  00F1               	movwf	ECCP3_CallBack@rising_edge_time+1
  5894     00C2  0877               	movf	ECCP3_CallBack@capturedValue,w
  5895     00C3  00F0               	movwf	ECCP3_CallBack@rising_edge_time
  5896                           
  5897                           ;tundra.c: 485:     if (rising_edge_time >= falling_edge_time) {
  5898     00C4  3004               	movlw	4
  5899     00C5  0093               	movwf	19	;volatile
  5900     00C6                     i1l1708:
  5901                           
  5902                           ;tundra.c: 486:       negative_pulse_width = rising_edge_time - falling_edge_time;
  5903     00C6  0872               	movf	ECCP3_CallBack@falling_edge_time,w
  5904     00C7  0270               	subwf	ECCP3_CallBack@rising_edge_time,w
  5905     00C8  0020               	movlb	0	; select bank0
  5906     00C9  00AD               	movwf	ECCP3_CallBack@negative_pulse_width
  5907     00CA  0873               	movf	ECCP3_CallBack@falling_edge_time+1,w
  5908     00CB  3B71               	subwfb	ECCP3_CallBack@rising_edge_time+1,w
  5909     00CC  00AE               	movwf	ECCP3_CallBack@negative_pulse_width+1
  5910     00CD                     i1l1712:	
  5911                           ;tundra.c: 487:     } else {
  5912                           
  5913                           
  5914                           ;tundra.c: 491:     fRise_edge = 1;
  5915     00CD  01B6               	clrf	ECCP3_CallBack@fRise_edge
  5916     00CE  0AB6               	incf	ECCP3_CallBack@fRise_edge,f
  5917     00CF                     i1l466:
  5918     00CF  0008               	return
  5919     00D0                     __end_of_ECCP3_CallBack:
  5920     007E                     btemp	set	126	;btemp
  5921     007E                     int$flags	set	126
  5922     007E                     wtemp0	set	126
  5923                           
  5924                           	psect	config
  5925                           
  5926                           ;Config register CONFIG1 @ 0x8007
  5927                           ;	Oscillator Selection
  5928                           ;	FOSC = INTOSC, INTOSC oscillator: I/O function on CLKIN pin
  5929                           ;	Watchdog Timer Enable
  5930                           ;	WDTE = OFF, WDT disabled
  5931                           ;	Power-up Timer Enable
  5932                           ;	PWRTE = OFF, PWRT disabled
  5933                           ;	MCLR Pin Function Select
  5934                           ;	MCLRE = ON, MCLR/VPP pin function is MCLR
  5935                           ;	Flash Program Memory Code Protection
  5936                           ;	CP = OFF, Program memory code protection is disabled
  5937                           ;	Data Memory Code Protection
  5938                           ;	CPD = OFF, Data memory code protection is disabled
  5939                           ;	Brown-out Reset Enable
  5940                           ;	BOREN = ON, Brown-out Reset enabled
  5941                           ;	Clock Out Enable
  5942                           ;	CLKOUTEN = OFF, CLKOUT function is disabled. I/O or oscillator function on the CLKOUT 
      +                          pin
  5943                           ;	Internal/External Switchover
  5944                           ;	IESO = ON, Internal/External Switchover mode is enabled
  5945                           ;	Fail-Safe Clock Monitor Enable
  5946                           ;	FCMEN = ON, Fail-Safe Clock Monitor is enabled
  5947     8007                     	org	32775
  5948     8007  3FE4               	dw	16356
  5949                           
  5950                           ;Config register CONFIG2 @ 0x8008
  5951                           ;	Flash Memory Self-Write Protection
  5952                           ;	WRT = OFF, Write protection off
  5953                           ;	Voltage Regulator Capacitor Enable
  5954                           ;	VCAPEN = OFF, All VCAP pin functionality is disabled
  5955                           ;	PLL Enable
  5956                           ;	PLLEN = ON, 4x PLL enabled
  5957                           ;	Stack Overflow/Underflow Reset Enable
  5958                           ;	STVREN = ON, Stack Overflow or Underflow will cause a Reset
  5959                           ;	Brown-out Reset Voltage Selection
  5960                           ;	BORV = LO, Brown-out Reset Voltage (Vbor), low trip point selected.
  5961                           ;	Low-Voltage Programming Enable
  5962                           ;	LVP = OFF, High-voltage on MCLR/VPP must be used for programming
  5963     8008                     	org	32776
  5964     8008  1FFF               	dw	8191

Data Sizes:
    Strings     0
    Constant    72
    Data        1
    BSS         42
    Persistent  32
    Stack       0

Auto Spaces:
    Space          Size  Autos    Used
    COMMON           14      7      14
    BANK0            80      4      40
    BANK1            80      0       0
    BANK2            80      0       0
    BANK3            80      0       0
    BANK4            80      0       0
    BANK5            80      0       0
    BANK6            16      0       0

Pointer List with Targets:

    TMR0_InterruptHandler	PTR FTN()void  size(2) Largest target is 1
		 -> TMR0_10MS_Even(), NULL(), 

    TMR0_SetInterruptHandler@InterruptHandler	PTR FTN()void  size(2) Largest target is 1
		 -> TMR0_10MS_Even(), 


Critical Paths under _main in COMMON

    None.

Critical Paths under _INTERRUPT_InterruptManager in COMMON

    _INTERRUPT_InterruptManager->_ECCP3_CaptureISR
    _TMR0_CallBack->_TMR0_10MS_Even
    _ECCP3_CaptureISR->_ECCP3_CallBack

Critical Paths under _main in BANK0

    _main->_tundra_main
    _tundra_main->_analysis_of_data
    _tundra_main->_receiver_frame_data
    _sofaware_initialize->_TMR0_SetInterruptHandler
    _Clear_No_Call_Warning->_TMR1_ReadTimer
    _Clear_No_Call_Warning->_TMR1_WriteTimer
    _TMR1_Reload->_TMR1_WriteTimer

Critical Paths under _INTERRUPT_InterruptManager in BANK0

    None.

Critical Paths under _main in BANK1

    None.

Critical Paths under _INTERRUPT_InterruptManager in BANK1

    None.

Critical Paths under _main in BANK2

    None.

Critical Paths under _INTERRUPT_InterruptManager in BANK2

    None.

Critical Paths under _main in BANK3

    None.

Critical Paths under _INTERRUPT_InterruptManager in BANK3

    None.

Critical Paths under _main in BANK4

    None.

Critical Paths under _INTERRUPT_InterruptManager in BANK4

    None.

Critical Paths under _main in BANK5

    None.

Critical Paths under _INTERRUPT_InterruptManager in BANK5

    None.

Critical Paths under _main in BANK6

    None.

Critical Paths under _INTERRUPT_InterruptManager in BANK6

    None.

Call Graph Tables:

 ---------------------------------------------------------------------------------
 (Depth) Function   	        Calls       Base Space   Used Autos Params    Refs
 ---------------------------------------------------------------------------------
 (0) _main                                                 0     0      0    1157
                  _SYSTEM_Initialize
                _sofaware_initialize
                        _tundra_main
 ---------------------------------------------------------------------------------
 (1) _tundra_main                                          2     2      0     120
                                              2 BANK0      2     2      0
                        _LED_control
                   _analysis_of_data
                _check_lamp_off_even
                  _check_unlock_even
                _receiver_frame_data
                     _to_do_lamp_off
               _to_do_signal_timeout
                       _to_do_unlock
 ---------------------------------------------------------------------------------
 (2) _to_do_unlock                                         0     0      0       0
                            _DRL_OFF
                            _FAN_OFF
                         _HIBEAM_OFF
                         _LOBEAM_OFF
                             _POS_ON
 ---------------------------------------------------------------------------------
 (2) _to_do_signal_timeout                                 0     0      0       0
 ---------------------------------------------------------------------------------
 (2) _to_do_lamp_off                                       0     0      0       0
                            _DRL_OFF
                            _FAN_OFF
                         _HIBEAM_OFF
                         _LOBEAM_OFF
                            _POS_OFF
 ---------------------------------------------------------------------------------
 (2) _receiver_frame_data                                  2     2      0       0
                                              0 BANK0      2     2      0
 ---------------------------------------------------------------------------------
 (2) _check_unlock_even                                    0     0      0       0
 ---------------------------------------------------------------------------------
 (2) _check_lamp_off_even                                  0     0      0       0
 ---------------------------------------------------------------------------------
 (2) _analysis_of_data                                     2     2      0     120
                                              0 BANK0      2     2      0
 ---------------------------------------------------------------------------------
 (2) _LED_control                                          0     0      0       0
                            _DRL_OFF
                             _DRL_ON
                            _FAN_OFF
                             _FAN_ON
                         _HIBEAM_OFF
                          _HIBEAM_ON
                         _LOBEAM_OFF
                          _LOBEAM_ON
                            _POS_OFF
                             _POS_ON
 ---------------------------------------------------------------------------------
 (3) _POS_ON                                               0     0      0       0
 ---------------------------------------------------------------------------------
 (3) _POS_OFF                                              0     0      0       0
 ---------------------------------------------------------------------------------
 (3) _LOBEAM_ON                                            0     0      0       0
 ---------------------------------------------------------------------------------
 (3) _LOBEAM_OFF                                           0     0      0       0
 ---------------------------------------------------------------------------------
 (3) _HIBEAM_ON                                            0     0      0       0
 ---------------------------------------------------------------------------------
 (3) _HIBEAM_OFF                                           0     0      0       0
 ---------------------------------------------------------------------------------
 (3) _FAN_ON                                               0     0      0       0
 ---------------------------------------------------------------------------------
 (3) _FAN_OFF                                              0     0      0       0
 ---------------------------------------------------------------------------------
 (3) _DRL_ON                                               0     0      0       0
 ---------------------------------------------------------------------------------
 (3) _DRL_OFF                                              0     0      0       0
 ---------------------------------------------------------------------------------
 (1) _sofaware_initialize                                  0     0      0    1037
              _Clear_No_Call_Warning
           _TMR0_SetInterruptHandler
 ---------------------------------------------------------------------------------
 (2) _TMR0_SetInterruptHandler                             2     0      2     121
                                              0 BANK0      2     0      2
 ---------------------------------------------------------------------------------
 (2) _Clear_No_Call_Warning                                1     1      0     916
                    _PIN_MANAGER_IOC
                     _TMR0_ReadTimer
                        _TMR0_Reload
                    _TMR0_WriteTimer
          _TMR1_CheckGateValueStatus
            _TMR1_HasOverflowOccured
                     _TMR1_ReadTimer
                        _TMR1_Reload
   _TMR1_StartSinglePulseAcquisition
                    _TMR1_StartTimer
                     _TMR1_StopTimer
                    _TMR1_WriteTimer
 ---------------------------------------------------------------------------------
 (3) _TMR1_StopTimer                                       0     0      0       0
 ---------------------------------------------------------------------------------
 (3) _TMR1_StartTimer                                      0     0      0       0
 ---------------------------------------------------------------------------------
 (3) _TMR1_StartSinglePulseAcquisition                     0     0      0       0
 ---------------------------------------------------------------------------------
 (3) _TMR1_Reload                                          0     0      0     304
                    _TMR1_WriteTimer
 ---------------------------------------------------------------------------------
 (3) _TMR1_WriteTimer                                      2     0      2     304
                                              0 BANK0      2     0      2
 ---------------------------------------------------------------------------------
 (3) _TMR1_ReadTimer                                       4     4      0      78
                                              0 BANK0      2     2      0
 ---------------------------------------------------------------------------------
 (3) _TMR1_HasOverflowOccured                              0     0      0       0
 ---------------------------------------------------------------------------------
 (3) _TMR1_CheckGateValueStatus                            0     0      0       0
 ---------------------------------------------------------------------------------
 (3) _TMR0_WriteTimer                                      1     1      0      31
                                              0 BANK0      1     1      0
 ---------------------------------------------------------------------------------
 (3) _TMR0_Reload                                          0     0      0       0
 ---------------------------------------------------------------------------------
 (3) _TMR0_ReadTimer                                       1     1      0      10
 ---------------------------------------------------------------------------------
 (3) _PIN_MANAGER_IOC                                      0     0      0       0
 ---------------------------------------------------------------------------------
 (1) _SYSTEM_Initialize                                    0     0      0       0
                   _ECCP3_Initialize
              _OSCILLATOR_Initialize
             _PIN_MANAGER_Initialize
                    _TMR0_Initialize
                    _TMR1_Initialize
                     _WDT_Initialize
 ---------------------------------------------------------------------------------
 (2) _WDT_Initialize                                       0     0      0       0
 ---------------------------------------------------------------------------------
 (2) _TMR1_Initialize                                      0     0      0       0
 ---------------------------------------------------------------------------------
 (2) _TMR0_Initialize                                      0     0      0       0
 ---------------------------------------------------------------------------------
 (2) _PIN_MANAGER_Initialize                               0     0      0       0
 ---------------------------------------------------------------------------------
 (2) _OSCILLATOR_Initialize                                0     0      0       0
 ---------------------------------------------------------------------------------
 (2) _ECCP3_Initialize                                     0     0      0       0
 ---------------------------------------------------------------------------------
 Estimated maximum stack depth 3
 ---------------------------------------------------------------------------------
 (Depth) Function   	        Calls       Base Space   Used Autos Params    Refs
 ---------------------------------------------------------------------------------
 (5) _INTERRUPT_InterruptManager                           0     0      0     214
                   _ECCP3_CaptureISR
                           _TMR0_ISR
 ---------------------------------------------------------------------------------
 (6) _TMR0_ISR                                             0     0      0       0
                      _TMR0_CallBack
 ---------------------------------------------------------------------------------
 (7) _TMR0_CallBack                                        0     0      0       0
                                NULL *
                     _TMR0_10MS_Even *
 ---------------------------------------------------------------------------------
 (8) _TMR0_10MS_Even                                       1     1      0       0
                                              0 COMMON     1     1      0
 ---------------------------------------------------------------------------------
 (8) NULL(Fake)                                            0     0      0       0
 ---------------------------------------------------------------------------------
 (6) _ECCP3_CaptureISR                                     2     2      0     214
                                              5 COMMON     2     2      0
                     _ECCP3_CallBack
 ---------------------------------------------------------------------------------
 (7) _ECCP3_CallBack                                       5     3      2     167
                                              0 COMMON     5     3      2
 ---------------------------------------------------------------------------------
 Estimated maximum stack depth 8
 ---------------------------------------------------------------------------------

 Call Graph Graphs:

 _main (ROOT)
   _SYSTEM_Initialize
     _ECCP3_Initialize
     _OSCILLATOR_Initialize
     _PIN_MANAGER_Initialize
     _TMR0_Initialize
     _TMR1_Initialize
     _WDT_Initialize
   _sofaware_initialize
     _Clear_No_Call_Warning
       _PIN_MANAGER_IOC
       _TMR0_ReadTimer
       _TMR0_Reload
       _TMR0_WriteTimer
       _TMR1_CheckGateValueStatus
       _TMR1_HasOverflowOccured
       _TMR1_ReadTimer
       _TMR1_Reload
         _TMR1_WriteTimer
       _TMR1_StartSinglePulseAcquisition
       _TMR1_StartTimer
       _TMR1_StopTimer
       _TMR1_WriteTimer
     _TMR0_SetInterruptHandler
   _tundra_main
     _LED_control
       _DRL_OFF
       _DRL_ON
       _FAN_OFF
       _FAN_ON
       _HIBEAM_OFF
       _HIBEAM_ON
       _LOBEAM_OFF
       _LOBEAM_ON
       _POS_OFF
       _POS_ON
     _analysis_of_data
     _check_lamp_off_even
     _check_unlock_even
     _receiver_frame_data
     _to_do_lamp_off
       _DRL_OFF
       _FAN_OFF
       _HIBEAM_OFF
       _LOBEAM_OFF
       _POS_OFF
     _to_do_signal_timeout
     _to_do_unlock
       _DRL_OFF
       _FAN_OFF
       _HIBEAM_OFF
       _LOBEAM_OFF
       _POS_ON

 _INTERRUPT_InterruptManager (ROOT)
   _ECCP3_CaptureISR
     _ECCP3_CallBack
   _TMR0_ISR
     _TMR0_CallBack
       NULL(Fake) *
       _TMR0_10MS_Even *

 Address spaces:
Name               Size   Autos  Total    Cost      Usage
BIGRAM             1F0      0       0       0        0.0%
EEDATA             100      0       0       0        0.0%
NULL                 0      0       0       0        0.0%
CODE                 0      0       0       0        0.0%
BITCOMMON            E      0       0       1        0.0%
BITSFR0              0      0       0       1        0.0%
SFR0                 0      0       0       1        0.0%
COMMON               E      7       E       2      100.0%
BITSFR1              0      0       0       2        0.0%
SFR1                 0      0       0       2        0.0%
BITSFR2              0      0       0       3        0.0%
SFR2                 0      0       0       3        0.0%
STACK                0      0       0       3        0.0%
BITSFR3              0      0       0       4        0.0%
SFR3                 0      0       0       4        0.0%
ABS                  0      0      36       4        0.0%
BITBANK0            50      0       0       5        0.0%
BITSFR4              0      0       0       5        0.0%
SFR4                 0      0       0       5        0.0%
BANK0               50      4      28       6       50.0%
BITSFR5              0      0       0       6        0.0%
SFR5                 0      0       0       6        0.0%
BITBANK1            50      0       0       7        0.0%
BITSFR6              0      0       0       7        0.0%
SFR6                 0      0       0       7        0.0%
BANK1               50      0       0       8        0.0%
BITSFR7              0      0       0       8        0.0%
SFR7                 0      0       0       8        0.0%
BITBANK2            50      0       0       9        0.0%
BITSFR8              0      0       0       9        0.0%
SFR8                 0      0       0       9        0.0%
BANK2               50      0       0      10        0.0%
BITSFR9              0      0       0      10        0.0%
SFR9                 0      0       0      10        0.0%
BITBANK3            50      0       0      11        0.0%
BITSFR10             0      0       0      11        0.0%
SFR10                0      0       0      11        0.0%
BANK3               50      0       0      12        0.0%
BITSFR11             0      0       0      12        0.0%
SFR11                0      0       0      12        0.0%
BITBANK4            50      0       0      13        0.0%
BITSFR12             0      0       0      13        0.0%
SFR12                0      0       0      13        0.0%
BANK4               50      0       0      14        0.0%
BITSFR13             0      0       0      14        0.0%
SFR13                0      0       0      14        0.0%
BITBANK5            50      0       0      15        0.0%
BITSFR14             0      0       0      15        0.0%
SFR14                0      0       0      15        0.0%
BANK5               50      0       0      16        0.0%
BITSFR15             0      0       0      16        0.0%
SFR15                0      0       0      16        0.0%
BITBANK6            10      0       0      17        0.0%
BITSFR16             0      0       0      17        0.0%
SFR16                0      0       0      17        0.0%
BANK6               10      0       0      18        0.0%
BITSFR17             0      0       0      18        0.0%
SFR17                0      0       0      18        0.0%
BITSFR18             0      0       0      19        0.0%
SFR18                0      0       0      19        0.0%
DATA                 0      0      36      19        0.0%
BITSFR19             0      0       0      20        0.0%
SFR19                0      0       0      20        0.0%
BITSFR20             0      0       0      21        0.0%
SFR20                0      0       0      21        0.0%
BITSFR21             0      0       0      22        0.0%
SFR21                0      0       0      22        0.0%
BITSFR22             0      0       0      23        0.0%
SFR22                0      0       0      23        0.0%
BITSFR23             0      0       0      24        0.0%
SFR23                0      0       0      24        0.0%
BITSFR24             0      0       0      25        0.0%
SFR24                0      0       0      25        0.0%
BITSFR25             0      0       0      26        0.0%
SFR25                0      0       0      26        0.0%
BITSFR26             0      0       0      27        0.0%
SFR26                0      0       0      27        0.0%
BITSFR27             0      0       0      28        0.0%
SFR27                0      0       0      28        0.0%
BITSFR28             0      0       0      29        0.0%
SFR28                0      0       0      29        0.0%
BITSFR29             0      0       0      30        0.0%
SFR29                0      0       0      30        0.0%
BITSFR30             0      0       0      31        0.0%
SFR30                0      0       0      31        0.0%
BITSFR31             0      0       0      32        0.0%
SFR31                0      0       0      32        0.0%


Microchip Technology PIC Macro Assembler V2.46 build 20240104201356 
Symbol Table                                                                                   Wed Apr 01 08:13:30 2026

               __end_of_FALLING_EDGE_TRIG 03BD                               ?_LOBEAM_OFF 0077  
                                      _D2 0042                                        _D3 0041  
                                      l31 0354                                        l25 0293  
                                      l34 0386                                        l28 034F  
                                      l53 0348                                        l62 0379  
                                      l70 0367                                        l56 03AD  
                                      l73 03B0                                        l67 02EA  
                                      l59 03AA                                        l76 03B6  
                                      _CS 01D3                                        l79 03B3  
                         _timer0ReloadVal 0076                                       l110 0268  
                                     l113 03C4                                       l231 03A7  
                                     l240 039E                                       l170 03B9  
                                     l234 038C                                       l410 013D  
                                     l243 03A1                                       l228 03A4  
                                     l252 0398                                       l404 01D2  
                                     l149 035E                                       l173 037E  
                                     l237 038F                                       l246 0392  
                                     l167 0323                                       l255 039B  
                                     l176 0382                                       l249 0395  
                                     l370 015A                                       l363 03C3  
                                     l371 015F                                       l372 0164  
                                     l380 02C8                                       l189 0373  
                                     l390 02A5                                       l367 0191  
                                     l368 0150                                       l384 02D9  
                                     l369 0155                                       l393 02B7  
                                     l482 0230                                       l387 0389  
                                     l484 024C                                       l469 033C  
                                     u900 015E                                       u901 015D  
                                     u910 0163                                       u750 00D6  
                                     u911 0162                                       u751 00D5  
                                     u840 02DF                                       u920 0168  
                                     u760 00DF                                       u841 02DE  
                                     u921 0167                                       u761 00DE  
                                     u850 0354                                       u930 0178  
                                     u770 00EC                                       u851 0353  
                                     u931 0177                                       u771 00EB  
                                     u940 0180                                       u860 0149  
                                     u941 017F                                       u861 0148  
                                     u950 0189                                       u870 014F  
                                     u951 0188                                       u871 014E  
                                     u880 0154                                       u960 02BF  
                                     u881 0153                                       u961 02BE  
                                     u890 0159                                       u970 02C5  
                                     u891 0158                                       u971 02C4  
                                     u980 02D0                                       u981 02CF  
                                     u990 02D6                                       u991 02D5  
                         _timer1ReloadVal 0033                          ??_to_do_lamp_off 0043  
                                     wreg 0009                           __end_of_FAN_OFF 03A2  
                __end_of_ECCP3_Initialize 035F                           __end_of_DRL_OFF 03A8  
                  ?_Clear_No_Call_Warning 0077                                      l2100 0251  
                                    l2110 025C                                      l2102 0253  
                                    l2120 0266                                      l2112 025F  
                                    l2104 0256                                      l2040 02E0  
                                    l2130 0355                                      l2122 0349  
                                    l2114 0261                                      l2106 0258  
                                    l2042 02E2                                      l2050 03AB  
                                    l2210 0159                                      l2202 014A  
                                    l2132 0358                                      l2124 034C  
                                    l2116 0263                                      l2108 025A  
                                    l2140 033D                                      l2044 02E4  
                                    l2036 02DA                                      l2060 03AE  
                                    l2052 03A8                                      l2300 0339  
                                    l2220 0172                                      l2212 015E  
                                    l2204 014B                                      l2134 0359  
                                    l2126 034D                                      l2118 0264  
                                    l2150 031C                                      l2142 0341  
                                    l2070 03B7                                      l2062 03B4  
                                    l2054 0374                                      l2038 02DF  
                                    l2046 02E6                                      l2222 0178  
                                    l2214 0163                                      l2206 014F  
                                    l2310 0224                                      l2302 0213  
                                    l2136 035A                                      l2152 031F  
                                    l2144 0342                                      l2128 0383  
                                    l2048 02E8                                      l2160 03C3  
                                    l2080 03A5                                      l2240 018E  
                                    l2232 0183                                      l2216 0168  
                                    l2208 0154                                      l2312 0228  
                                    l2304 0219                                      l2138 035C  
                                    l2154 0321                                      l2146 0346  
                                    l2074 037C                                      l2066 03B1  
                                    l2058 035F                                      l2090 0390  
                                    l2082 038A                                      l2242 018F  
                                    l2234 0189                                      l2226 017A  
                                    l2218 0169                                      l2250 02C7  
                                    l2314 022C                                      l2306 021C  
                                    l2330 0311                                      l2156 0322  
                                    l2148 0317                                      l2076 037F  
                                    l2092 0393                                      l2084 038D  
                                    l2228 0180                                      l2252 02C9  
                                    l2244 02B8                                      l2260 0387  
                                    l2308 0220                                      l2324 0309  
                                    l2158 036E                                      l2078 03A2  
                                    l2086 039C                                      l2094 0396  
                                    l2270 0192                                      l2238 018C  
                                    l2254 02D0                                      l2246 02BF  
                                    l2262 0294                                      l2318 0232  
                                    l2326 030F                                      l2088 039F  
                                    l2096 0399                                      l2280 01A6  
                                    l2272 0197                                      l2192 013E  
                                    l2256 02D6                                      l2248 02C5  
                                    l2264 02A3                                      l2328 0310  
                                    l2098 024D                                      l2290 01C6  
                                    l2282 01AB                                      l2274 019B  
                                    l2194 0143                                      l2258 02D8  
                                    l2266 02A6                                      l2292 01CB  
                                    l2284 01B4                                      l2276 019E  
                                    l2196 0144                                      l1900 0107  
                                    l2268 02B5                                      l2294 01CF  
                                    l2286 01B9                                      l2278 01A3  
                                    l2198 0144                                      l2382 023B  
                                    l2296 0281                                      l2288 01BD  
                                    l2384 011A                                      l1904 010A  
                                    l2298 0331                                      l1908 010D  
                                    l1916 0112                                      l1860 00D7  
                                    l1870 00EC                                      l1862 00D9  
                                    l1880 00F8                                      l1872 00EE  
                                    l1864 00DF                                      l1856 00D0  
                                    l1874 00F3                                      l1866 00E3  
                                    l1892 0101                                      l1884 00FB  
                                    l1876 00F5                                      l1868 00E6  
                                    l1896 0104                                      l1888 00FE  
                                    u1000 0197                                      u1001 0196  
                                    u1010 01A3                                      u1011 01A2  
                                    u1020 01AB                                      u1021 01AA  
                                    u1030 01B9                                      u1031 01B8  
                                    u1040 01CB                                      u1041 01CA  
                                    _LATA 010C                                      _LATB 010D  
                                    _LATC 010E                                      _LATE 0110  
                 _TMR1_HasOverflowOccured 03B1                                      _PLLR 04D6  
                                    _TMR0 0015                                      _WPUB 020D  
                                    _WPUE 0210                         ?_analysis_of_data 0077  
                         __end_of_POS_OFF 0390                                      _main 0309  
                                    fsr0h 0005                                      indf0 0000  
                                    fsr0l 0004                                      btemp 007E  
                    analysis_of_data@crc8 0043                        ??_analysis_of_data 0043  
                                    start 0026                    ??_to_do_signal_timeout 0043  
                            ?_LED_control 0077     ECCP3_CallBack@negative_pulse_width_us 0038  
                             _tundra_main 0213                   __end_of_TMR0_Initialize 0324  
           __end_of_OSCILLATOR_Initialize 0355               __end_of_receiver_frame_data 013E  
                                   ?_main 0077                           _TMR1_StartTimer 03AB  
                                   _BIT_7 03BB                                     _T1CON 0018  
                                   i1l133 0024                                     i1l134 0024  
                                   i1l152 0308                                     i1l128 0012  
                                   i1l182 0280                                     i1l186 0330  
                                   i1l451 00B9                                     i1l460 00AB  
                                   i1l453 0059                                     i1l454 007B  
                                   i1l473 02F9                                     i1l466 00CF  
                         _TMR0_WriteTimer 037A                                     _TMR1H 0017  
                                   _TMR1L 0016                                     u50_20 0093  
                                   u50_21 0092                                     u51_24 0098  
                                   u51_25 0097                                     u44_20 02F6  
                                   u44_21 02F5                                     u52_24 00A5  
                                   u52_25 00A4                                     u53_20 00B5  
                                   u45_20 0046                                     u53_21 00B4  
                                   u45_21 0045                                     u54_20 00C0  
                                   u46_20 0052                                     u54_21 00BF  
                                   u46_21 0051                                     u47_20 0077  
                                   u55_20 032B                                     u47_21 0076  
                                   u55_21 032A                                     u48_20 0085  
                                   u80_20 000E                                     u48_21 0084  
                                   u80_21 000D                                     u49_20 008A  
                                   u81_20 0016                                     u49_21 0089  
                                   u81_21 0015                                     _TRISA 008C  
                                   _TRISB 008D                                     _TRISC 008E  
                                   _TRISE 0090                                     u82_20 001B  
                                   u82_21 001A                                     u83_20 0020  
                                   u83_21 001F                                     u78_20 027A  
                                   u78_21 0279                                     u79_20 000A  
                                   u79_21 0009                 ?_TMR0_SetInterruptHandler 0043  
                        __end_of_TMR0_ISR 0281                   __end_of_PIN_MANAGER_IOC 03C5  
                          _WDT_Initialize 0383                   __end_of_TMR1_Initialize 0349  
                                   pclath 000A                                     status 0003  
                                   wtemp0 007E                           _TMR1_WriteTimer 02DA  
                       __end_of_HIBEAM_ON 0399                           __initialization 0028  
                            __end_of_main 0317               ?_INTERRUPT_InterruptManager 0077  
                               ??_FAN_OFF 0043                                    ??_main 0047  
         ECCP3_CallBack@falling_edge_time 0072                         __end_of_LOBEAM_ON 0393  
                               ??_DRL_OFF 0043                         __end_of_LIGHT_PID 03C3  
                  __end_of_WDT_Initialize 0387                 ??_TMR1_HasOverflowOccured 0043  
                               ??_POS_OFF 0043                                    _CCPR3H 0312  
                                  _CCPR3L 0311                                    _APFCON 011D  
                                  _ANSELA 018C                                    _ANSELB 018D  
                                  _FAN_ON 039C                                    _BORCON 0116  
                                  _T1GCON 0019                   TMR1_WriteTimer@timerVal 0043  
                                  i1l1700 00B5                                    i1l1702 00B6  
                                  i1l1712 00CD                                    i1l1704 00BA  
                                  i1l1706 00C0                                    i1l1650 02F6  
                                  i1l1714 0324                                    i1l1708 00C6  
                                  i1l1652 02F8                                    i1l1716 032B  
                                  i1l1670 0052                                    i1l1662 003F  
                                  i1l1646 02EB                                    i1l1680 0077  
                                  i1l1664 003F                                    i1l1648 02F0  
                                  i1l1690 008C                                    i1l1682 0079  
                                  i1l1674 0053                                    i1l1666 0046  
                                  i1l1930 027A                                    i1l1692 008E  
                                  i1l1684 007F                                    i1l1668 004C  
                                  i1l1932 027D                                    i1l1694 0093  
                                  i1l1686 0085                                    i1l1678 0071  
                                  i1l1934 02FA                                    i1l1926 0269  
                                  i1l1696 00A0                                    i1l1688 008A  
                                  i1l1936 02FC                                    i1l1928 026A  
                                  _DRL_ON 03A2                       _sofaware_initialize 0331  
                                  i1l1698 00AF                                    i1l1938 0301  
                                  i1l1970 000E                                    i1l1972 0016  
                                  i1l1974 001B                                    i1l1966 0006  
                                  i1l1976 0020                                    i1l1968 000A  
                                  _OSCCON 0099                                    _WDTCON 0097  
                                  _POS_ON 038A                            _TMR0_10MS_Even 02EB  
                            ?_TMR0_Reload 0077            ECCP3_CallBack@rising_edge_time 0070  
                 __end_of_TMR1_StartTimer 03AE                              ?_TMR1_Reload 0077  
                                  _csFlag 0040                   __end_of_TMR0_WriteTimer 037F  
                    ?_sofaware_initialize 0077                          ?_TMR0_Initialize 0077  
                            ??_HIBEAM_OFF 0043                                _eLamp_even 003B  
                                  _rx_buf 0020                         ?_ECCP3_CaptureISR 0077  
                         ?_WDT_Initialize 0077                        ??_ECCP3_CaptureISR 007C  
                   __end_of_TMR0_CallBack 0331  TMR0_SetInterruptHandler@InterruptHandler 0043  
                        ?_PIN_MANAGER_IOC 0077                     ECCP3_CallBack@diff_us 0037  
                 __end_of_TMR1_WriteTimer 02EB                     ECCP3_CallBack@bit_cnt 0074  
                        ?_TMR1_Initialize 0077                         _SYSTEM_Initialize 0281  
                 __end_of__initialization 003B                    __end_of_TMR0_10MS_Even 02FA  
                      ?_SYSTEM_Initialize 0077               __end_of_check_lamp_off_even 02DA  
                      __end_of_HIBEAM_OFF 039C                             __end_of_BIT_7 03BC  
                          __pcstackCOMMON 0077                              __pidataBANK0 03BA  
                     ??_SYSTEM_Initialize 0043                                 ?_TMR0_ISR 0077  
                            ??_LOBEAM_OFF 0043                     ??_sofaware_initialize 0045  
                              __end_of_CS 0213                            _OPTION_REGbits 0095  
                   TMR0_ISR@CountCallBack 002F                        __end_of_BUF_LENGTH 03BF  
                 ??_Clear_No_Call_Warning 0045                 __end_of_SYSTEM_Initialize 0294  
                       ?_ECCP3_Initialize 0077                                   ?_FAN_ON 0077  
                              __pbssBANK0 0020                                   ?_DRL_ON 0077  
                      ??_ECCP3_Initialize 0043                        __end_of_LOBEAM_OFF 0396  
                                 ?_POS_ON 0077                           ?_TMR0_10MS_Even 0077  
                              __pmaintext 0309          __end_of_TMR0_SetInterruptHandler 0374  
                            ?_tundra_main 0077                          ?_TMR1_StartTimer 0077  
                              ??_TMR0_ISR 0078                                __pintentry 0004  
                        ?_TMR0_WriteTimer 0077                                   _CCP3CON 0313  
                                 _FAN_OFF 039F                                   _DRL_OFF 03A5  
                                 _OSCTUNE 0098                                   _POS_OFF 038D  
                        ?_TMR1_WriteTimer 0043        ECCP3_CallBack@negative_pulse_width 002D  
                      __end_of_UART_LEVEL 03C0                                 _HIBEAM_ON 0396  
                TMR1_ReadTimer@readValLow 0044                            _ECCP3_CallBack 003F  
                                 __ptext1 0213                                   __ptext2 0294  
                                 __ptext3 0387                                   __ptext4 02A6  
                                 __ptext5 00D0                                   __ptext6 02B8  
                                 __ptext7 02C9                                   __ptext8 013E  
                                 __ptext9 0192                 TMR1_ReadTimer@readValHigh 0043  
                               _T1CONbits 0018                     _OSCILLATOR_Initialize 0349  
                  ECCP3_CaptureISR@module 007C                  ??_PIN_MANAGER_Initialize 0043  
                  ECCP3_CallBack@fUART_TX 007B                                   _rx_data 0075  
                               _LOBEAM_ON 0390                                 _LIGHT_PID 03C2  
                                 clrloop0 0369                      end_of_initialization 003B  
                           ?_to_do_unlock 0077                         _check_unlock_even 02B8  
                     __end_of_DATA_LENGTH 03C2                                ?_HIBEAM_ON 0077  
                      ?_check_unlock_even 0077                    __end_of_ECCP3_CallBack 00D0  
                          _TMR0_ReadTimer 03B7                          ??_WDT_Initialize 0043  
                _TMR0_SetInterruptHandler 036E                       ??_check_unlock_even 0043  
              analysis_of_data@temp_index 0044                            _TMR1_ReadTimer 0374  
                              ?_LOBEAM_ON 0077                            ??_to_do_unlock 0043  
                          __end_of_FAN_ON 039F                            __end_of_DRL_ON 03A5  
                          __end_of_POS_ON 038D                 __end_of_check_unlock_even 02C9  
                        _RISING_EDGE_TRIG 03BD                    __end_of_TMR0_ReadTimer 03BA  
                         ?_ECCP3_CallBack 0077                          _analysis_of_data 013E  
                          _TMR1_StopTimer 03A8                    ?_OSCILLATOR_Initialize 0077  
                  __end_of_TMR1_ReadTimer 037A                  ?_TMR1_HasOverflowOccured 0077  
                     start_initialization 0028             __end_of_Clear_No_Call_Warning 03C4  
                        ??_TMR0_10MS_Even 0077                                  ??_FAN_ON 0043  
                                ??_DRL_ON 0043                                  ??_POS_ON 0043  
                             _DATA_LENGTH 03C1               __end_of_sofaware_initialize 033D  
                           ??_LED_control 0043                ?_TMR1_CheckGateValueStatus 0077  
                         ?_TMR0_ReadTimer 0077                               ??_HIBEAM_ON 0043  
                               _fFrame_OK 003E                    __end_of_TMR1_StopTimer 03AB  
                             __pdataBANK0 0047  __end_of_TMR1_StartSinglePulseAcquisition 03B1  
      ??_TMR1_StartSinglePulseAcquisition 0043         ?_TMR1_StartSinglePulseAcquisition 0077  
        _TMR1_StartSinglePulseAcquisition 03AE                                  ?_FAN_OFF 0077  
                         ?_TMR1_ReadTimer 0077                                  ?_DRL_OFF 0077  
                             __pbssCOMMON 0070                                 ___latbits 0002  
                           __pcstackBANK0 0043                               ??_LOBEAM_ON 0043  
                                ?_POS_OFF 0077                            _to_do_lamp_off 02A6  
                   _TMR0_InterruptHandler 0031                    _PIN_MANAGER_Initialize 024D  
                     __end_of_LOGIC_LEVEL 03C1                       _receiver_frame_data 00D0  
       __end_of_TMR1_CheckGateValueStatus 03B7           __end_of_TMR1_HasOverflowOccured 03B4  
                         ?_TMR1_StopTimer 0077                       __end_of_LED_control 01D3  
            ??_INTERRUPT_InterruptManager 007E                      __end_of_to_do_unlock 02A6  
       receiver_frame_data@eReceiver_step 003A              __end_of_to_do_signal_timeout 038A  
                    ?_receiver_frame_data 0077               _positive_pulse_width_us_max 003C  
             _positive_pulse_width_us_min 0047                             _TMR0_CallBack 0324  
                  __end_of_to_do_lamp_off 02B8                         ??_TMR0_Initialize 0043  
      ECCP3_CallBack@positive_pulse_width 002B                          _ECCP3_CaptureISR 02FA  
                                _LATAbits 010C                                  _LATBbits 010D  
                               clear_ram0 0368                                  _PIE3bits 0093  
              ??_TMR0_SetInterruptHandler 0045                                  _PIR1bits 0011  
                                _PIR3bits 0013                             ??_TMR0_Reload 0043  
                           ??_TMR1_Reload 0045                                  _TMR0_ISR 0269  
                       ??_PIN_MANAGER_IOC 0043                         ??_TMR1_Initialize 0043  
   ECCP3_CallBack@positive_pulse_width_us 0039                     ??_receiver_frame_data 0043  
                __end_of_RISING_EDGE_TRIG 03BE                            ?_TMR0_CallBack 0077  
                         ?_to_do_lamp_off 0077                  __end_of_analysis_of_data 0192  
                             _LOGIC_LEVEL 03C0                          ??_ECCP3_CallBack 0079  
                             _LED_control 0192                          _ECCP3_Initialize 0355  
                 ??_OSCILLATOR_Initialize 0043               ECCP3_CallBack@capturedValue 0077  
                              _HIBEAM_OFF 0399                       __end_of_TMR0_Reload 0383  
                     __end_of_TMR1_Reload 0368                                  __ptext10 038A  
                                __ptext11 038D                                  __ptext20 0331  
                                __ptext12 0390                                  __ptext21 036E  
                                __ptext13 0393                                _T1GCONbits 0019  
                                __ptext30 03B4                                  __ptext22 03C3  
                                __ptext14 0396                                  __ptext31 037A  
                                __ptext23 03A8                                  __ptext15 0399  
                                __ptext40 0349                                  __ptext32 037F  
                                __ptext24 03AB                                  __ptext16 039C  
                                __ptext41 0355                                  __ptext33 03B7  
                                __ptext25 03AE                                  __ptext17 039F  
                                __ptext34 03C4                                  __ptext26 035F  
                                __ptext18 03A2                                  __ptext43 0269  
                                __ptext35 0281                                  __ptext27 02DA  
                                __ptext19 03A5                                  __ptext44 0324  
                                __ptext36 0383                                  __ptext28 0374  
                                __ptext45 02EB                                  __ptext37 033D  
                                __ptext29 03B1                                  __ptext46 02FA  
                                __ptext38 0317                                  __ptext47 003F  
                                __ptext39 024D                       _check_lamp_off_even 02C9  
                       ??_TMR1_StartTimer 0043                   TMR0_WriteTimer@timerVal 0043  
                       ??_TMR0_WriteTimer 0043                                _BUF_LENGTH 03BE  
                        ??_TMR0_ReadTimer 0043                  ECCP3_CallBack@fRise_edge 0036  
                           ??_tundra_main 0045                      _to_do_signal_timeout 0387  
             ??_TMR1_CheckGateValueStatus 0043                          ??_TMR1_ReadTimer 0043  
                                int$flags 007E                      ?_check_lamp_off_even 0077  
                              _LOBEAM_OFF 0393        __end_of_INTERRUPT_InterruptManager 0026  
              _INTERRUPT_InterruptManager 0004                         ??_TMR1_WriteTimer 0045  
                ECCP3_CallBack@fStart_bit 0035                                _INTCONbits 000B  
                         ??_TMR0_CallBack 0078                       _Communication_timer 003D  
                                intlevel1 0000                     _Clear_No_Call_Warning 03C3  
                 ?_PIN_MANAGER_Initialize 0077                              _to_do_unlock 0294  
                        ??_TMR1_StopTimer 0043                     ?_to_do_signal_timeout 0077  
                             _TMR0_Reload 037F                     ??_check_lamp_off_even 0043  
                             _TMR1_Reload 035F                         _FALLING_EDGE_TRIG 03BC  
                             ?_HIBEAM_OFF 0077                             __pstringtext1 01D3  
                           __pstringtext2 03BB                             __pstringtext3 03BC  
                           __pstringtext4 03BD                             __pstringtext5 03BE  
                           __pstringtext6 03BF                             __pstringtext7 03C0  
                           __pstringtext8 03C1                             __pstringtext9 03C2  
                __end_of_ECCP3_CaptureISR 0309                       __end_of_tundra_main 024D  
                          _fReceiver_Byte 003F                                _UART_LEVEL 03BF  
                              _OPTION_REG 0095                           _TMR0_Initialize 0317  
               _TMR1_CheckGateValueStatus 03B4            __end_of_PIN_MANAGER_Initialize 0269  
                         _PIN_MANAGER_IOC 03C4                           _TMR1_Initialize 033D  
